GAS LISTING /tmp/ccfQBKdh.s 			page 1


   1              		.file	"buffer.cpp"
   2              		.option pic
   3              		.option norelax
   4              		.text
   5              	.Ltext0:
   6              		.align	2
   7              		.globl	_ZN6bufferC2Ei
   9              	_ZN6bufferC2Ei:
  10              	.LFB33:
  11              		.file 1 "src/buffer.cpp"
   1:src/buffer.cpp **** #include "../h/buffer.h"
   2:src/buffer.cpp **** 
   3:src/buffer.cpp **** buffer::buffer(int kapacitet) {
  12              		.loc 1 3 1
  13              		.cfi_startproc
  14              	.LVL0:
  15 0000 130101FE 		addi	sp,sp,-32
  16              		.cfi_def_cfa_offset 32
  17 0004 233C1100 		sd	ra,24(sp)
  18 0008 23388100 		sd	s0,16(sp)
  19 000c 23349100 		sd	s1,8(sp)
  20 0010 23302101 		sd	s2,0(sp)
  21              		.cfi_offset 1, -8
  22              		.cfi_offset 8, -16
  23              		.cfi_offset 9, -24
  24              		.cfi_offset 18, -32
  25 0014 13040102 		addi	s0,sp,32
  26              		.cfi_def_cfa 8, 0
  27 0018 93040500 		mv	s1,a0
  28 001c 13890500 		mv	s2,a1
  29              	.LBB2:
   4:src/buffer.cpp ****     this->kapacitet = kapacitet;
  30              		.loc 1 4 5
  31              		.loc 1 4 21 is_stmt 0
  32 0020 2320B500 		sw	a1,0(a0)
   5:src/buffer.cpp ****     this->buff = (char*) mem_alloc(sizeof (char) * kapacitet);
  33              		.loc 1 5 5 is_stmt 1
  34              		.loc 1 5 35 is_stmt 0
  35 0024 13850500 		mv	a0,a1
  36              	.LVL1:
  37 0028 97000000 		call	_Z9mem_allocm@plt
  37      E7800000 
  38              	.LVL2:
  39              		.loc 1 5 16
  40 0030 23B8A400 		sd	a0,16(s1)
   6:src/buffer.cpp ****     head = tail = 0;
  41              		.loc 1 6 5 is_stmt 1
  42              		.loc 1 6 17 is_stmt 0
  43 0034 23A40400 		sw	zero,8(s1)
  44              		.loc 1 6 10
  45 0038 23A20400 		sw	zero,4(s1)
   7:src/buffer.cpp ****     spaceAvilable = semaphore::open(kapacitet);
  46              		.loc 1 7 5 is_stmt 1
  47              		.loc 1 7 36 is_stmt 0
  48 003c 13050900 		mv	a0,s2
  49 0040 97000000 		call	_ZN9semaphore4openEi@plt
  49      E7800000 
GAS LISTING /tmp/ccfQBKdh.s 			page 2


  50              	.LVL3:
  51              		.loc 1 7 19
  52 0048 23BCA400 		sd	a0,24(s1)
   8:src/buffer.cpp ****     itemAvailable = semaphore::open(0);
  53              		.loc 1 8 5 is_stmt 1
  54              		.loc 1 8 36 is_stmt 0
  55 004c 13050000 		li	a0,0
  56 0050 97000000 		call	_ZN9semaphore4openEi@plt
  56      E7800000 
  57              	.LVL4:
  58              		.loc 1 8 19
  59 0058 23B0A402 		sd	a0,32(s1)
   9:src/buffer.cpp ****     mutexHead = semaphore::open(1);
  60              		.loc 1 9 5 is_stmt 1
  61              		.loc 1 9 32 is_stmt 0
  62 005c 13051000 		li	a0,1
  63 0060 97000000 		call	_ZN9semaphore4openEi@plt
  63      E7800000 
  64              	.LVL5:
  65              		.loc 1 9 15
  66 0068 23B4A402 		sd	a0,40(s1)
  10:src/buffer.cpp ****     mutexTail = semaphore::open(1);
  67              		.loc 1 10 5 is_stmt 1
  68              		.loc 1 10 32 is_stmt 0
  69 006c 13051000 		li	a0,1
  70 0070 97000000 		call	_ZN9semaphore4openEi@plt
  70      E7800000 
  71              	.LVL6:
  72              		.loc 1 10 15
  73 0078 23B8A402 		sd	a0,48(s1)
  74              	.LBE2:
  11:src/buffer.cpp **** }
  75              		.loc 1 11 1
  76 007c 83308101 		ld	ra,24(sp)
  77              		.cfi_restore 1
  78 0080 03340101 		ld	s0,16(sp)
  79              		.cfi_restore 8
  80              		.cfi_def_cfa 2, 32
  81 0084 83348100 		ld	s1,8(sp)
  82              		.cfi_restore 9
  83              	.LVL7:
  84 0088 03390100 		ld	s2,0(sp)
  85              		.cfi_restore 18
  86 008c 13010102 		addi	sp,sp,32
  87              		.cfi_def_cfa_offset 0
  88 0090 67800000 		jr	ra
  89              		.cfi_endproc
  90              	.LFE33:
  92              		.globl	_ZN6bufferC1Ei
  93              		.set	_ZN6bufferC1Ei,_ZN6bufferC2Ei
  94              		.align	2
  95              		.globl	_ZN6buffer3putEc
  97              	_ZN6buffer3putEc:
  98              	.LFB35:
  12:src/buffer.cpp **** 
  13:src/buffer.cpp **** void buffer::put(char c) {
  99              		.loc 1 13 26 is_stmt 1
GAS LISTING /tmp/ccfQBKdh.s 			page 3


 100              		.cfi_startproc
 101              	.LVL8:
 102 0094 130101FE 		addi	sp,sp,-32
 103              		.cfi_def_cfa_offset 32
 104 0098 233C1100 		sd	ra,24(sp)
 105 009c 23388100 		sd	s0,16(sp)
 106 00a0 23349100 		sd	s1,8(sp)
 107 00a4 23302101 		sd	s2,0(sp)
 108              		.cfi_offset 1, -8
 109              		.cfi_offset 8, -16
 110              		.cfi_offset 9, -24
 111              		.cfi_offset 18, -32
 112 00a8 13040102 		addi	s0,sp,32
 113              		.cfi_def_cfa 8, 0
 114 00ac 93040500 		mv	s1,a0
 115 00b0 13890500 		mv	s2,a1
  14:src/buffer.cpp ****     spaceAvilable->wait();
 116              		.loc 1 14 5
 117              		.loc 1 14 24 is_stmt 0
 118 00b4 03358501 		ld	a0,24(a0)
 119              	.LVL9:
 120 00b8 97000000 		call	_ZN9semaphore4waitEv@plt
 120      E7800000 
 121              	.LVL10:
  15:src/buffer.cpp ****     mutexTail->wait();
 122              		.loc 1 15 5 is_stmt 1
 123              		.loc 1 15 20 is_stmt 0
 124 00c0 03B50403 		ld	a0,48(s1)
 125 00c4 97000000 		call	_ZN9semaphore4waitEv@plt
 125      E7800000 
 126              	.LVL11:
  16:src/buffer.cpp **** 
  17:src/buffer.cpp ****     buff[tail] = c;
 127              		.loc 1 17 5 is_stmt 1
 128 00cc 83B70401 		ld	a5,16(s1)
 129              		.loc 1 17 10 is_stmt 0
 130 00d0 03A78400 		lw	a4,8(s1)
 131              		.loc 1 17 14
 132 00d4 B387E700 		add	a5,a5,a4
 133              		.loc 1 17 16
 134 00d8 23802701 		sb	s2,0(a5)
  18:src/buffer.cpp ****     tail = (tail + 1)%kapacitet;
 135              		.loc 1 18 5 is_stmt 1
 136              		.loc 1 18 13 is_stmt 0
 137 00dc 83A78400 		lw	a5,8(s1)
 138              		.loc 1 18 18
 139 00e0 9B871700 		addiw	a5,a5,1
 140              		.loc 1 18 23
 141 00e4 03A70400 		lw	a4,0(s1)
 142              		.loc 1 18 22
 143 00e8 BBE7E702 		remw	a5,a5,a4
 144              		.loc 1 18 10
 145 00ec 23A4F400 		sw	a5,8(s1)
  19:src/buffer.cpp **** 
  20:src/buffer.cpp ****     mutexTail->signal();
 146              		.loc 1 20 5 is_stmt 1
 147              		.loc 1 20 22 is_stmt 0
GAS LISTING /tmp/ccfQBKdh.s 			page 4


 148 00f0 03B50403 		ld	a0,48(s1)
 149 00f4 97000000 		call	_ZN9semaphore6signalEv@plt
 149      E7800000 
 150              	.LVL12:
  21:src/buffer.cpp ****     itemAvailable->signal();
 151              		.loc 1 21 5 is_stmt 1
 152              		.loc 1 21 26 is_stmt 0
 153 00fc 03B50402 		ld	a0,32(s1)
 154 0100 97000000 		call	_ZN9semaphore6signalEv@plt
 154      E7800000 
 155              	.LVL13:
  22:src/buffer.cpp **** }
 156              		.loc 1 22 1
 157 0108 83308101 		ld	ra,24(sp)
 158              		.cfi_restore 1
 159 010c 03340101 		ld	s0,16(sp)
 160              		.cfi_restore 8
 161              		.cfi_def_cfa 2, 32
 162 0110 83348100 		ld	s1,8(sp)
 163              		.cfi_restore 9
 164              	.LVL14:
 165 0114 03390100 		ld	s2,0(sp)
 166              		.cfi_restore 18
 167 0118 13010102 		addi	sp,sp,32
 168              		.cfi_def_cfa_offset 0
 169 011c 67800000 		jr	ra
 170              		.cfi_endproc
 171              	.LFE35:
 173              		.align	2
 174              		.globl	_ZN6buffer3getEv
 176              	_ZN6buffer3getEv:
 177              	.LFB36:
  23:src/buffer.cpp **** 
  24:src/buffer.cpp **** int buffer::get() {
 178              		.loc 1 24 19 is_stmt 1
 179              		.cfi_startproc
 180              	.LVL15:
 181 0120 130101FE 		addi	sp,sp,-32
 182              		.cfi_def_cfa_offset 32
 183 0124 233C1100 		sd	ra,24(sp)
 184 0128 23388100 		sd	s0,16(sp)
 185 012c 23349100 		sd	s1,8(sp)
 186 0130 23302101 		sd	s2,0(sp)
 187              		.cfi_offset 1, -8
 188              		.cfi_offset 8, -16
 189              		.cfi_offset 9, -24
 190              		.cfi_offset 18, -32
 191 0134 13040102 		addi	s0,sp,32
 192              		.cfi_def_cfa 8, 0
 193 0138 93040500 		mv	s1,a0
  25:src/buffer.cpp ****     itemAvailable->wait();
 194              		.loc 1 25 5
 195              		.loc 1 25 24 is_stmt 0
 196 013c 03350502 		ld	a0,32(a0)
 197              	.LVL16:
 198 0140 97000000 		call	_ZN9semaphore4waitEv@plt
 198      E7800000 
GAS LISTING /tmp/ccfQBKdh.s 			page 5


 199              	.LVL17:
  26:src/buffer.cpp ****     mutexHead->wait();
 200              		.loc 1 26 5 is_stmt 1
 201              		.loc 1 26 20 is_stmt 0
 202 0148 03B58402 		ld	a0,40(s1)
 203 014c 97000000 		call	_ZN9semaphore4waitEv@plt
 203      E7800000 
 204              	.LVL18:
  27:src/buffer.cpp **** 
  28:src/buffer.cpp ****     char c = buff[head];
 205              		.loc 1 28 5 is_stmt 1
 206              		.loc 1 28 14 is_stmt 0
 207 0154 03B70401 		ld	a4,16(s1)
 208              		.loc 1 28 19
 209 0158 83A74400 		lw	a5,4(s1)
 210              		.loc 1 28 23
 211 015c 3307F700 		add	a4,a4,a5
 212              		.loc 1 28 10
 213 0160 03490700 		lbu	s2,0(a4)
 214              	.LVL19:
  29:src/buffer.cpp ****     head = (head + 1)%kapacitet;
 215              		.loc 1 29 5 is_stmt 1
 216              		.loc 1 29 18 is_stmt 0
 217 0164 9B871700 		addiw	a5,a5,1
 218              		.loc 1 29 23
 219 0168 03A70400 		lw	a4,0(s1)
 220              		.loc 1 29 22
 221 016c BBE7E702 		remw	a5,a5,a4
 222              		.loc 1 29 10
 223 0170 23A2F400 		sw	a5,4(s1)
  30:src/buffer.cpp **** 
  31:src/buffer.cpp ****     mutexHead->signal();
 224              		.loc 1 31 5 is_stmt 1
 225              		.loc 1 31 22 is_stmt 0
 226 0174 03B58402 		ld	a0,40(s1)
 227 0178 97000000 		call	_ZN9semaphore6signalEv@plt
 227      E7800000 
 228              	.LVL20:
  32:src/buffer.cpp ****     spaceAvilable->signal();
 229              		.loc 1 32 5 is_stmt 1
 230              		.loc 1 32 26 is_stmt 0
 231 0180 03B58401 		ld	a0,24(s1)
 232 0184 97000000 		call	_ZN9semaphore6signalEv@plt
 232      E7800000 
 233              	.LVL21:
  33:src/buffer.cpp **** 
  34:src/buffer.cpp ****     return c;
 234              		.loc 1 34 5 is_stmt 1
  35:src/buffer.cpp **** }
 235              		.loc 1 35 1 is_stmt 0
 236 018c 13050900 		mv	a0,s2
 237 0190 83308101 		ld	ra,24(sp)
 238              		.cfi_restore 1
 239 0194 03340101 		ld	s0,16(sp)
 240              		.cfi_restore 8
 241              		.cfi_def_cfa 2, 32
 242 0198 83348100 		ld	s1,8(sp)
GAS LISTING /tmp/ccfQBKdh.s 			page 6


 243              		.cfi_restore 9
 244              	.LVL22:
 245 019c 03390100 		ld	s2,0(sp)
 246              		.cfi_restore 18
 247              	.LVL23:
 248 01a0 13010102 		addi	sp,sp,32
 249              		.cfi_def_cfa_offset 0
 250 01a4 67800000 		jr	ra
 251              		.cfi_endproc
 252              	.LFE36:
 254              		.align	2
 255              		.globl	_ZN6buffer6getCntEv
 257              	_ZN6buffer6getCntEv:
 258              	.LFB37:
  36:src/buffer.cpp **** 
  37:src/buffer.cpp **** int buffer::getCnt() {
 259              		.loc 1 37 22 is_stmt 1
 260              		.cfi_startproc
 261              	.LVL24:
 262 01a8 130101FE 		addi	sp,sp,-32
 263              		.cfi_def_cfa_offset 32
 264 01ac 233C1100 		sd	ra,24(sp)
 265 01b0 23388100 		sd	s0,16(sp)
 266 01b4 23349100 		sd	s1,8(sp)
 267 01b8 23302101 		sd	s2,0(sp)
 268              		.cfi_offset 1, -8
 269              		.cfi_offset 8, -16
 270              		.cfi_offset 9, -24
 271              		.cfi_offset 18, -32
 272 01bc 13040102 		addi	s0,sp,32
 273              		.cfi_def_cfa 8, 0
 274 01c0 93040500 		mv	s1,a0
  38:src/buffer.cpp ****     int ret;
 275              		.loc 1 38 5
  39:src/buffer.cpp **** 
  40:src/buffer.cpp ****     mutexHead->wait();
 276              		.loc 1 40 5
 277              		.loc 1 40 20 is_stmt 0
 278 01c4 03358502 		ld	a0,40(a0)
 279              	.LVL25:
 280 01c8 97000000 		call	_ZN9semaphore4waitEv@plt
 280      E7800000 
 281              	.LVL26:
  41:src/buffer.cpp ****     mutexTail->wait();
 282              		.loc 1 41 5 is_stmt 1
 283              		.loc 1 41 20 is_stmt 0
 284 01d0 03B50403 		ld	a0,48(s1)
 285 01d4 97000000 		call	_ZN9semaphore4waitEv@plt
 285      E7800000 
 286              	.LVL27:
  42:src/buffer.cpp **** 
  43:src/buffer.cpp ****     if(tail >= head) ret = tail - head;
 287              		.loc 1 43 5 is_stmt 1
 288              		.loc 1 43 8 is_stmt 0
 289 01dc 83A78400 		lw	a5,8(s1)
 290              		.loc 1 43 16
 291 01e0 03A94400 		lw	s2,4(s1)
GAS LISTING /tmp/ccfQBKdh.s 			page 7


 292              		.loc 1 43 5
 293 01e4 63CE2703 		blt	a5,s2,.L8
 294              		.loc 1 43 22 is_stmt 1 discriminator 1
 295              		.loc 1 43 26 is_stmt 0 discriminator 1
 296 01e8 3B892741 		subw	s2,a5,s2
 297              	.LVL28:
 298              	.L9:
  44:src/buffer.cpp ****     else ret = kapacitet - head + tail;
  45:src/buffer.cpp **** 
  46:src/buffer.cpp ****     mutexTail->signal();
 299              		.loc 1 46 5 is_stmt 1
 300              		.loc 1 46 22 is_stmt 0
 301 01ec 03B50403 		ld	a0,48(s1)
 302 01f0 97000000 		call	_ZN9semaphore6signalEv@plt
 302      E7800000 
 303              	.LVL29:
  47:src/buffer.cpp ****     mutexHead->signal();
 304              		.loc 1 47 5 is_stmt 1
 305              		.loc 1 47 22 is_stmt 0
 306 01f8 03B58402 		ld	a0,40(s1)
 307 01fc 97000000 		call	_ZN9semaphore6signalEv@plt
 307      E7800000 
 308              	.LVL30:
  48:src/buffer.cpp ****     return ret;
 309              		.loc 1 48 5 is_stmt 1
  49:src/buffer.cpp **** }...
 310              		.loc 1 49 1 is_stmt 0
 311 0204 13050900 		mv	a0,s2
 312 0208 83308101 		ld	ra,24(sp)
 313              		.cfi_remember_state
 314              		.cfi_restore 1
 315 020c 03340101 		ld	s0,16(sp)
 316              		.cfi_restore 8
 317              		.cfi_def_cfa 2, 32
 318 0210 83348100 		ld	s1,8(sp)
 319              		.cfi_restore 9
 320              	.LVL31:
 321 0214 03390100 		ld	s2,0(sp)
 322              		.cfi_restore 18
 323              	.LVL32:
 324 0218 13010102 		addi	sp,sp,32
 325              		.cfi_def_cfa_offset 0
 326 021c 67800000 		jr	ra
 327              	.LVL33:
 328              	.L8:
 329              		.cfi_restore_state
  44:src/buffer.cpp ****     else ret = kapacitet - head + tail;
 330              		.loc 1 44 10 is_stmt 1
  44:src/buffer.cpp ****     else ret = kapacitet - head + tail;
 331              		.loc 1 44 16 is_stmt 0
 332 0220 03A70400 		lw	a4,0(s1)
  44:src/buffer.cpp ****     else ret = kapacitet - head + tail;
 333              		.loc 1 44 26
 334 0224 3B092741 		subw	s2,a4,s2
  44:src/buffer.cpp ****     else ret = kapacitet - head + tail;
 335              		.loc 1 44 14
 336 0228 3B09F900 		addw	s2,s2,a5
GAS LISTING /tmp/ccfQBKdh.s 			page 8


 337 022c 6FF01FFC 		j	.L9
 338              		.cfi_endproc
 339              	.LFE37:
 341              	.Letext0:
 342              		.file 2 "src/../h/../h/../h/../h/../lib/hw.h"
 343              		.file 3 "src/../h/../h/../h/tcb.hpp"
 344              		.file 4 "src/../h/../h/semaphore.hpp"
 345              		.file 5 "src/../h/buffer.h"
 346              		.file 6 "src/../h/../h/../h/syscall_c.h"
GAS LISTING /tmp/ccfQBKdh.s 			page 9

