GAS LISTING /tmp/cc6xFtA5.s 			page 1


   1              		.file	"console.cpp"
   2              		.option pic
   3              		.option norelax
   4              		.text
   5              	.Ltext0:
   6              		.align	2
   7              		.globl	_ZN7console4initEv
   9              	_ZN7console4initEv:
  10              	.LFB35:
  11              		.file 1 "src/console.cpp"
   1:src/console.cpp **** #include "../h/console.hpp"
   2:src/console.cpp **** 
   3:src/console.cpp **** buffer* console::bufferOut = nullptr;
   4:src/console.cpp **** buffer* console::bufferIn = nullptr;
   5:src/console.cpp **** 
   6:src/console.cpp **** void console::init() {
  12              		.loc 1 6 22
  13              		.cfi_startproc
  14              		.cfi_personality 0x9b,DW.ref.__gxx_personality_v0
  15              		.cfi_lsda 0x1b,.LLSDA35
  16 0000 130101FE 		addi	sp,sp,-32
  17              		.cfi_def_cfa_offset 32
  18 0004 233C1100 		sd	ra,24(sp)
  19 0008 23388100 		sd	s0,16(sp)
  20 000c 23349100 		sd	s1,8(sp)
  21 0010 23302101 		sd	s2,0(sp)
  22              		.cfi_offset 1, -8
  23              		.cfi_offset 8, -16
  24              		.cfi_offset 9, -24
  25              		.cfi_offset 18, -32
  26 0014 13040102 		addi	s0,sp,32
  27              		.cfi_def_cfa 8, 0
   7:src/console.cpp ****     bufferIn = new buffer(256);
  28              		.loc 1 7 5
  29              		.loc 1 7 30 is_stmt 0
  30 0018 13058003 		li	a0,56
  31              	.LEHB0:
  32 001c 97000000 		call	_Znwm@plt
  32      E7800000 
  33              	.LVL0:
  34              	.LEHE0:
  35 0024 93040500 		mv	s1,a0
  36 0028 93050010 		li	a1,256
  37              	.LEHB1:
  38 002c 97000000 		call	_ZN6bufferC1Ei@plt
  38      E7800000 
  39              	.LVL1:
  40              	.LEHE1:
  41              		.loc 1 7 14 discriminator 2
  42 0034 97070000 		sd	s1,.LANCHOR0,a5
  42      23B09700 
   8:src/console.cpp ****     bufferOut = new buffer(256);
  43              		.loc 1 8 5 is_stmt 1 discriminator 2
  44              		.loc 1 8 31 is_stmt 0 discriminator 2
  45 003c 13058003 		li	a0,56
  46              	.LEHB2:
  47 0040 97000000 		call	_Znwm@plt
GAS LISTING /tmp/cc6xFtA5.s 			page 2


  47      E7800000 
  48              	.LVL2:
  49              	.LEHE2:
  50 0048 93040500 		mv	s1,a0
  51 004c 93050010 		li	a1,256
  52              	.LEHB3:
  53 0050 97000000 		call	_ZN6bufferC1Ei@plt
  53      E7800000 
  54              	.LVL3:
  55              	.LEHE3:
  56              		.loc 1 8 15 discriminator 2
  57 0058 97070000 		sd	s1,.LANCHOR0+8,a5
  57      23B09700 
   9:src/console.cpp **** }
  58              		.loc 1 9 1 discriminator 2
  59 0060 83308101 		ld	ra,24(sp)
  60              		.cfi_remember_state
  61              		.cfi_restore 1
  62 0064 03340101 		ld	s0,16(sp)
  63              		.cfi_restore 8
  64              		.cfi_def_cfa 2, 32
  65 0068 83348100 		ld	s1,8(sp)
  66              		.cfi_restore 9
  67 006c 03390100 		ld	s2,0(sp)
  68              		.cfi_restore 18
  69 0070 13010102 		addi	sp,sp,32
  70              		.cfi_def_cfa_offset 0
  71 0074 67800000 		jr	ra
  72              	.L4:
  73              		.cfi_restore_state
  74 0078 13090500 		mv	s2,a0
   7:src/console.cpp ****     bufferIn = new buffer(256);
  75              		.loc 1 7 30
  76 007c 13850400 		mv	a0,s1
  77 0080 97000000 		call	_ZdlPv@plt
  77      E7800000 
  78              	.LVL4:
  79 0088 13050900 		mv	a0,s2
  80              	.LEHB4:
  81 008c 97000000 		call	_Unwind_Resume@plt
  81      E7800000 
  82              	.LVL5:
  83              	.L5:
  84 0094 13090500 		mv	s2,a0
   8:src/console.cpp ****     bufferOut = new buffer(256);
  85              		.loc 1 8 31
  86 0098 13850400 		mv	a0,s1
  87 009c 97000000 		call	_ZdlPv@plt
  87      E7800000 
  88              	.LVL6:
  89 00a4 13050900 		mv	a0,s2
  90 00a8 97000000 		call	_Unwind_Resume@plt
  90      E7800000 
  91              	.LVL7:
  92              	.LEHE4:
  93              		.cfi_endproc
  94              	.LFE35:
GAS LISTING /tmp/cc6xFtA5.s 			page 3


  95              		.globl	__gxx_personality_v0
  96              		.section	.gcc_except_table,"a",@progbits
  97              	.LLSDA35:
  98 0000 FF       		.byte	0xff
  99 0001 FF       		.byte	0xff
 100 0002 03       		.byte	0x3
 101 0003 41       		.byte	0x41
 102 0004 00000000 		.4byte	.LEHB0-.LFB35
 103 0008 00000000 		.4byte	.LEHE0-.LEHB0
 104 000c 00000000 		.4byte	0
 105 0010 00       		.byte	0
 106 0011 00000000 		.4byte	.LEHB1-.LFB35
 107 0015 00000000 		.4byte	.LEHE1-.LEHB1
 108 0019 00000000 		.4byte	.L4-.LFB35
 109 001d 00       		.byte	0
 110 001e 00000000 		.4byte	.LEHB2-.LFB35
 111 0022 00000000 		.4byte	.LEHE2-.LEHB2
 112 0026 00000000 		.4byte	0
 113 002a 00       		.byte	0
 114 002b 00000000 		.4byte	.LEHB3-.LFB35
 115 002f 00000000 		.4byte	.LEHE3-.LEHB3
 116 0033 00000000 		.4byte	.L5-.LFB35
 117 0037 00       		.byte	0
 118 0038 00000000 		.4byte	.LEHB4-.LFB35
 119 003c 00000000 		.4byte	.LEHE4-.LEHB4
 120 0040 00000000 		.4byte	0
 121 0044 00       		.byte	0
 122              		.text
 124              		.align	2
 125              		.globl	_ZN7console16putInInputBufferEc
 127              	_ZN7console16putInInputBufferEc:
 128              	.LFB36:
  10:src/console.cpp **** 
  11:src/console.cpp **** void console::putInInputBuffer(char c) {
 129              		.loc 1 11 40 is_stmt 1
 130              		.cfi_startproc
 131              	.LVL8:
 132 00b0 130101FF 		addi	sp,sp,-16
 133              		.cfi_def_cfa_offset 16
 134 00b4 23341100 		sd	ra,8(sp)
 135 00b8 23308100 		sd	s0,0(sp)
 136              		.cfi_offset 1, -8
 137              		.cfi_offset 8, -16
 138 00bc 13040101 		addi	s0,sp,16
 139              		.cfi_def_cfa 8, 0
 140 00c0 93050500 		mv	a1,a0
  12:src/console.cpp ****     bufferIn->put(c);
 141              		.loc 1 12 5
 142              		.loc 1 12 18 is_stmt 0
 143 00c4 17050000 		ld	a0,.LANCHOR0
 143      03350500 
 144              	.LVL9:
 145 00cc 97000000 		call	_ZN6buffer3putEc@plt
 145      E7800000 
 146              	.LVL10:
  13:src/console.cpp **** }
 147              		.loc 1 13 1
GAS LISTING /tmp/cc6xFtA5.s 			page 4


 148 00d4 83308100 		ld	ra,8(sp)
 149              		.cfi_restore 1
 150 00d8 03340100 		ld	s0,0(sp)
 151              		.cfi_restore 8
 152              		.cfi_def_cfa 2, 16
 153 00dc 13010101 		addi	sp,sp,16
 154              		.cfi_def_cfa_offset 0
 155 00e0 67800000 		jr	ra
 156              		.cfi_endproc
 157              	.LFE36:
 159              		.align	2
 160              		.globl	_ZN7console18getFromInputBufferEv
 162              	_ZN7console18getFromInputBufferEv:
 163              	.LFB37:
  14:src/console.cpp **** 
  15:src/console.cpp **** char console::getFromInputBuffer() {
 164              		.loc 1 15 36 is_stmt 1
 165              		.cfi_startproc
 166 00e4 130101FF 		addi	sp,sp,-16
 167              		.cfi_def_cfa_offset 16
 168 00e8 23341100 		sd	ra,8(sp)
 169 00ec 23308100 		sd	s0,0(sp)
 170              		.cfi_offset 1, -8
 171              		.cfi_offset 8, -16
 172 00f0 13040101 		addi	s0,sp,16
 173              		.cfi_def_cfa 8, 0
  16:src/console.cpp ****     return bufferIn->get();
 174              		.loc 1 16 5
 175              		.loc 1 16 25 is_stmt 0
 176 00f4 17050000 		ld	a0,.LANCHOR0
 176      03350500 
 177 00fc 97000000 		call	_ZN6buffer3getEv@plt
 177      E7800000 
 178              	.LVL11:
  17:src/console.cpp **** }
 179              		.loc 1 17 1
 180 0104 1375F50F 		andi	a0,a0,0xff
 181 0108 83308100 		ld	ra,8(sp)
 182              		.cfi_restore 1
 183 010c 03340100 		ld	s0,0(sp)
 184              		.cfi_restore 8
 185              		.cfi_def_cfa 2, 16
 186 0110 13010101 		addi	sp,sp,16
 187              		.cfi_def_cfa_offset 0
 188 0114 67800000 		jr	ra
 189              		.cfi_endproc
 190              	.LFE37:
 192              		.align	2
 193              		.globl	_ZN7console17putInOutputBufferEc
 195              	_ZN7console17putInOutputBufferEc:
 196              	.LFB38:
  18:src/console.cpp **** 
  19:src/console.cpp **** void console::putInOutputBuffer(char c) {
 197              		.loc 1 19 41 is_stmt 1
 198              		.cfi_startproc
 199              	.LVL12:
 200 0118 130101FF 		addi	sp,sp,-16
GAS LISTING /tmp/cc6xFtA5.s 			page 5


 201              		.cfi_def_cfa_offset 16
 202 011c 23341100 		sd	ra,8(sp)
 203 0120 23308100 		sd	s0,0(sp)
 204              		.cfi_offset 1, -8
 205              		.cfi_offset 8, -16
 206 0124 13040101 		addi	s0,sp,16
 207              		.cfi_def_cfa 8, 0
 208 0128 93050500 		mv	a1,a0
  20:src/console.cpp ****     bufferOut->put(c);
 209              		.loc 1 20 5
 210              		.loc 1 20 19 is_stmt 0
 211 012c 17050000 		ld	a0,.LANCHOR0+8
 211      03350500 
 212              	.LVL13:
 213 0134 97000000 		call	_ZN6buffer3putEc@plt
 213      E7800000 
 214              	.LVL14:
  21:src/console.cpp **** }
 215              		.loc 1 21 1
 216 013c 83308100 		ld	ra,8(sp)
 217              		.cfi_restore 1
 218 0140 03340100 		ld	s0,0(sp)
 219              		.cfi_restore 8
 220              		.cfi_def_cfa 2, 16
 221 0144 13010101 		addi	sp,sp,16
 222              		.cfi_def_cfa_offset 0
 223 0148 67800000 		jr	ra
 224              		.cfi_endproc
 225              	.LFE38:
 227              		.align	2
 228              		.globl	_ZN7console19getFromOutputBufferEv
 230              	_ZN7console19getFromOutputBufferEv:
 231              	.LFB39:
  22:src/console.cpp **** 
  23:src/console.cpp **** char console::getFromOutputBuffer() {
 232              		.loc 1 23 37 is_stmt 1
 233              		.cfi_startproc
 234 014c 130101FF 		addi	sp,sp,-16
 235              		.cfi_def_cfa_offset 16
 236 0150 23341100 		sd	ra,8(sp)
 237 0154 23308100 		sd	s0,0(sp)
 238              		.cfi_offset 1, -8
 239              		.cfi_offset 8, -16
 240 0158 13040101 		addi	s0,sp,16
 241              		.cfi_def_cfa 8, 0
  24:src/console.cpp ****     return bufferOut->get();
 242              		.loc 1 24 5
 243              		.loc 1 24 26 is_stmt 0
 244 015c 17050000 		ld	a0,.LANCHOR0+8
 244      03350500 
 245 0164 97000000 		call	_ZN6buffer3getEv@plt
 245      E7800000 
 246              	.LVL15:
  25:src/console.cpp **** }
 247              		.loc 1 25 1
 248 016c 1375F50F 		andi	a0,a0,0xff
 249 0170 83308100 		ld	ra,8(sp)
GAS LISTING /tmp/cc6xFtA5.s 			page 6


 250              		.cfi_restore 1
 251 0174 03340100 		ld	s0,0(sp)
 252              		.cfi_restore 8
 253              		.cfi_def_cfa 2, 16
 254 0178 13010101 		addi	sp,sp,16
 255              		.cfi_def_cfa_offset 0
 256 017c 67800000 		jr	ra
 257              		.cfi_endproc
 258              	.LFE39:
 260              		.align	2
 261              		.globl	_Z11consolePutcPv
 263              	_Z11consolePutcPv:
 264              	.LFB40:
  26:src/console.cpp **** 
  27:src/console.cpp **** void consolePutc(void*){
 265              		.loc 1 27 24 is_stmt 1
 266              		.cfi_startproc
 267 0180 130101FE 		addi	sp,sp,-32
 268              		.cfi_def_cfa_offset 32
 269 0184 233C1100 		sd	ra,24(sp)
 270 0188 23388100 		sd	s0,16(sp)
 271 018c 23349100 		sd	s1,8(sp)
 272 0190 23302101 		sd	s2,0(sp)
 273              		.cfi_offset 1, -8
 274              		.cfi_offset 8, -16
 275              		.cfi_offset 9, -24
 276              		.cfi_offset 18, -32
 277 0194 13040102 		addi	s0,sp,32
 278              		.cfi_def_cfa 8, 0
 279 0198 6F00C000 		j	.L19
 280              	.LVL16:
 281              	.L17:
 282              	.LBB2:
  28:src/console.cpp ****     //changeToUser();
  29:src/console.cpp ****     while(true){
  30:src/console.cpp ****         char ready = *(char*) CONSOLE_STATUS;
  31:src/console.cpp ****         while(ready & CONSOLE_TX_STATUS_BIT){
  32:src/console.cpp ****             *(char*) CONSOLE_TX_DATA = console::getFromOutputBuffer();
  33:src/console.cpp ****             ready = *(char*) CONSOLE_STATUS;
  34:src/console.cpp ****         }
  35:src/console.cpp ****         thread_dispatch();
 283              		.loc 1 35 9
 284              		.loc 1 35 24 is_stmt 0
 285 019c 97000000 		call	_Z15thread_dispatchv@plt
 285      E7800000 
 286              	.LVL17:
 287              	.LBE2:
  29:src/console.cpp ****         char ready = *(char*) CONSOLE_STATUS;
 288              		.loc 1 29 5 is_stmt 1
 289              	.L19:
  29:src/console.cpp ****         char ready = *(char*) CONSOLE_STATUS;
 290              		.loc 1 29 5
 291              	.LBB3:
  30:src/console.cpp ****         while(ready & CONSOLE_TX_STATUS_BIT){
 292              		.loc 1 30 9
  30:src/console.cpp ****         while(ready & CONSOLE_TX_STATUS_BIT){
 293              		.loc 1 30 22 is_stmt 0
GAS LISTING /tmp/cc6xFtA5.s 			page 7


 294 01a4 97070000 		la	a5,CONSOLE_STATUS
 294      83B70700 
 295 01ac 83B40700 		ld	s1,0(a5)
  30:src/console.cpp ****         while(ready & CONSOLE_TX_STATUS_BIT){
 296              		.loc 1 30 14
 297 01b0 83C70400 		lbu	a5,0(s1)
 298              	.LVL18:
 299              	.L18:
  31:src/console.cpp ****             *(char*) CONSOLE_TX_DATA = console::getFromOutputBuffer();
 300              		.loc 1 31 9 is_stmt 1
  31:src/console.cpp ****             *(char*) CONSOLE_TX_DATA = console::getFromOutputBuffer();
 301              		.loc 1 31 23
 302 01b4 93F70702 		andi	a5,a5,32
 303              	.LVL19:
 304 01b8 E38207FE 		beqz	a5,.L17
  32:src/console.cpp ****             ready = *(char*) CONSOLE_STATUS;
 305              		.loc 1 32 13
 306 01bc 97070000 		la	a5,CONSOLE_TX_DATA
 306      83B70700 
 307 01c4 03B90700 		ld	s2,0(a5)
  32:src/console.cpp ****             ready = *(char*) CONSOLE_STATUS;
 308              		.loc 1 32 68 is_stmt 0
 309 01c8 97000000 		call	_ZN7console19getFromOutputBufferEv
 309      E7800000 
 310              	.LVL20:
  32:src/console.cpp ****             ready = *(char*) CONSOLE_STATUS;
 311              		.loc 1 32 38
 312 01d0 2300A900 		sb	a0,0(s2)
  33:src/console.cpp ****         }
 313              		.loc 1 33 13 is_stmt 1
  33:src/console.cpp ****         }
 314              		.loc 1 33 19 is_stmt 0
 315 01d4 83C70400 		lbu	a5,0(s1)
 316              	.LVL21:
  31:src/console.cpp ****             *(char*) CONSOLE_TX_DATA = console::getFromOutputBuffer();
 317              		.loc 1 31 9
 318 01d8 6FF0DFFD 		j	.L18
 319              	.LBE3:
 320              		.cfi_endproc
 321              	.LFE40:
 323              		.globl	_ZN7console8bufferInE
 324              		.globl	_ZN7console9bufferOutE
 325              		.bss
 326              		.align	3
 327              		.set	.LANCHOR0,. + 0
 330              	_ZN7console8bufferInE:
 331 0000 00000000 		.zero	8
 331      00000000 
 334              	_ZN7console9bufferOutE:
 335 0008 00000000 		.zero	8
 335      00000000 
 336              		.text
 337              	.Letext0:
 338              		.file 2 "src/../h/../h/../h/../h/../h/../lib/hw.h"
 339              		.file 3 "src/../h/../h/../h/../h/tcb.hpp"
 340              		.file 4 "src/../h/../h/../h/semaphore.hpp"
 341              		.file 5 "src/../h/../h/buffer.h"
GAS LISTING /tmp/cc6xFtA5.s 			page 8


 342              		.file 6 "src/../h/console.hpp"
 343              		.file 7 "src/../h/../h/../h/../h/syscall_c.h"
 2569              		.align	3
 2572              	DW.ref.__gxx_personality_v0:
 2573 0000 00000000 		.dword	__gxx_personality_v0
 2573      00000000 
 2574              		.ident	"GCC: (Ubuntu 9.4.0-1ubuntu1~20.04) 9.4.0"
 2575              		.section	.note.GNU-stack,"",@progbits
GAS LISTING /tmp/cc6xFtA5.s 			page 9


DEFINED SYMBOLS
                            *ABS*:0000000000000000 console.cpp
     /tmp/cc6xFtA5.s:9      .text:0000000000000000 _ZN7console4initEv
     /tmp/cc6xFtA5.s:13     .text:0000000000000000 .L0 
     /tmp/cc6xFtA5.s:2572   .data.rel.local.DW.ref.__gxx_personality_v0:0000000000000000 DW.ref.__gxx_personality_v0
     /tmp/cc6xFtA5.s:16     .text:0000000000000000 .L0 
     /tmp/cc6xFtA5.s:17     .text:0000000000000004 .L0 
     /tmp/cc6xFtA5.s:22     .text:0000000000000014 .L0 
     /tmp/cc6xFtA5.s:23     .text:0000000000000014 .L0 
     /tmp/cc6xFtA5.s:24     .text:0000000000000014 .L0 
     /tmp/cc6xFtA5.s:25     .text:0000000000000014 .L0 
     /tmp/cc6xFtA5.s:27     .text:0000000000000018 .L0 
     /tmp/cc6xFtA5.s:29     .text:0000000000000018 .L0 
     /tmp/cc6xFtA5.s:30     .text:0000000000000018 .L0 
     /tmp/cc6xFtA5.s:42     .text:0000000000000034 .L0 
     /tmp/cc6xFtA5.s:44     .text:000000000000003c .L0 
     /tmp/cc6xFtA5.s:45     .text:000000000000003c .L0 
     /tmp/cc6xFtA5.s:57     .text:0000000000000058 .L0 
     /tmp/cc6xFtA5.s:59     .text:0000000000000060 .L0 
     /tmp/cc6xFtA5.s:60     .text:0000000000000064 .L0 
     /tmp/cc6xFtA5.s:61     .text:0000000000000064 .L0 
     /tmp/cc6xFtA5.s:63     .text:0000000000000068 .L0 
     /tmp/cc6xFtA5.s:64     .text:0000000000000068 .L0 
     /tmp/cc6xFtA5.s:66     .text:000000000000006c .L0 
     /tmp/cc6xFtA5.s:68     .text:0000000000000070 .L0 
     /tmp/cc6xFtA5.s:70     .text:0000000000000074 .L0 
     /tmp/cc6xFtA5.s:73     .text:0000000000000078 .L0 
     /tmp/cc6xFtA5.s:76     .text:000000000000007c .L0 
     /tmp/cc6xFtA5.s:86     .text:0000000000000098 .L0 
     /tmp/cc6xFtA5.s:93     .text:00000000000000b0 .L0 
     /tmp/cc6xFtA5.s:127    .text:00000000000000b0 _ZN7console16putInInputBufferEc
     /tmp/cc6xFtA5.s:130    .text:00000000000000b0 .L0 
     /tmp/cc6xFtA5.s:132    .text:00000000000000b0 .L0 
     /tmp/cc6xFtA5.s:133    .text:00000000000000b4 .L0 
     /tmp/cc6xFtA5.s:136    .text:00000000000000bc .L0 
     /tmp/cc6xFtA5.s:137    .text:00000000000000bc .L0 
     /tmp/cc6xFtA5.s:139    .text:00000000000000c0 .L0 
     /tmp/cc6xFtA5.s:142    .text:00000000000000c4 .L0 
     /tmp/cc6xFtA5.s:143    .text:00000000000000c4 .L0 
     /tmp/cc6xFtA5.s:148    .text:00000000000000d4 .L0 
     /tmp/cc6xFtA5.s:149    .text:00000000000000d8 .L0 
     /tmp/cc6xFtA5.s:151    .text:00000000000000dc .L0 
     /tmp/cc6xFtA5.s:152    .text:00000000000000dc .L0 
     /tmp/cc6xFtA5.s:154    .text:00000000000000e0 .L0 
     /tmp/cc6xFtA5.s:156    .text:00000000000000e4 .L0 
     /tmp/cc6xFtA5.s:162    .text:00000000000000e4 _ZN7console18getFromInputBufferEv
     /tmp/cc6xFtA5.s:165    .text:00000000000000e4 .L0 
     /tmp/cc6xFtA5.s:166    .text:00000000000000e4 .L0 
     /tmp/cc6xFtA5.s:167    .text:00000000000000e8 .L0 
     /tmp/cc6xFtA5.s:170    .text:00000000000000f0 .L0 
     /tmp/cc6xFtA5.s:171    .text:00000000000000f0 .L0 
     /tmp/cc6xFtA5.s:173    .text:00000000000000f4 .L0 
     /tmp/cc6xFtA5.s:175    .text:00000000000000f4 .L0 
     /tmp/cc6xFtA5.s:176    .text:00000000000000f4 .L0 
     /tmp/cc6xFtA5.s:180    .text:0000000000000104 .L0 
     /tmp/cc6xFtA5.s:182    .text:000000000000010c .L0 
     /tmp/cc6xFtA5.s:184    .text:0000000000000110 .L0 
GAS LISTING /tmp/cc6xFtA5.s 			page 10


     /tmp/cc6xFtA5.s:185    .text:0000000000000110 .L0 
     /tmp/cc6xFtA5.s:187    .text:0000000000000114 .L0 
     /tmp/cc6xFtA5.s:189    .text:0000000000000118 .L0 
     /tmp/cc6xFtA5.s:195    .text:0000000000000118 _ZN7console17putInOutputBufferEc
     /tmp/cc6xFtA5.s:198    .text:0000000000000118 .L0 
     /tmp/cc6xFtA5.s:200    .text:0000000000000118 .L0 
     /tmp/cc6xFtA5.s:201    .text:000000000000011c .L0 
     /tmp/cc6xFtA5.s:204    .text:0000000000000124 .L0 
     /tmp/cc6xFtA5.s:205    .text:0000000000000124 .L0 
     /tmp/cc6xFtA5.s:207    .text:0000000000000128 .L0 
     /tmp/cc6xFtA5.s:210    .text:000000000000012c .L0 
     /tmp/cc6xFtA5.s:211    .text:000000000000012c .L0 
     /tmp/cc6xFtA5.s:216    .text:000000000000013c .L0 
     /tmp/cc6xFtA5.s:217    .text:0000000000000140 .L0 
     /tmp/cc6xFtA5.s:219    .text:0000000000000144 .L0 
     /tmp/cc6xFtA5.s:220    .text:0000000000000144 .L0 
     /tmp/cc6xFtA5.s:222    .text:0000000000000148 .L0 
     /tmp/cc6xFtA5.s:224    .text:000000000000014c .L0 
     /tmp/cc6xFtA5.s:230    .text:000000000000014c _ZN7console19getFromOutputBufferEv
     /tmp/cc6xFtA5.s:233    .text:000000000000014c .L0 
     /tmp/cc6xFtA5.s:234    .text:000000000000014c .L0 
     /tmp/cc6xFtA5.s:235    .text:0000000000000150 .L0 
     /tmp/cc6xFtA5.s:238    .text:0000000000000158 .L0 
     /tmp/cc6xFtA5.s:239    .text:0000000000000158 .L0 
     /tmp/cc6xFtA5.s:241    .text:000000000000015c .L0 
     /tmp/cc6xFtA5.s:243    .text:000000000000015c .L0 
     /tmp/cc6xFtA5.s:244    .text:000000000000015c .L0 
     /tmp/cc6xFtA5.s:248    .text:000000000000016c .L0 
     /tmp/cc6xFtA5.s:250    .text:0000000000000174 .L0 
     /tmp/cc6xFtA5.s:252    .text:0000000000000178 .L0 
     /tmp/cc6xFtA5.s:253    .text:0000000000000178 .L0 
     /tmp/cc6xFtA5.s:255    .text:000000000000017c .L0 
     /tmp/cc6xFtA5.s:257    .text:0000000000000180 .L0 
     /tmp/cc6xFtA5.s:263    .text:0000000000000180 _Z11consolePutcPv
     /tmp/cc6xFtA5.s:266    .text:0000000000000180 .L0 
     /tmp/cc6xFtA5.s:267    .text:0000000000000180 .L0 
     /tmp/cc6xFtA5.s:268    .text:0000000000000184 .L0 
     /tmp/cc6xFtA5.s:273    .text:0000000000000194 .L0 
     /tmp/cc6xFtA5.s:274    .text:0000000000000194 .L0 
     /tmp/cc6xFtA5.s:275    .text:0000000000000194 .L0 
     /tmp/cc6xFtA5.s:276    .text:0000000000000194 .L0 
     /tmp/cc6xFtA5.s:278    .text:0000000000000198 .L0 
     /tmp/cc6xFtA5.s:284    .text:000000000000019c .L0 
     /tmp/cc6xFtA5.s:285    .text:000000000000019c .L0 
     /tmp/cc6xFtA5.s:290    .text:00000000000001a4 .L0 
     /tmp/cc6xFtA5.s:292    .text:00000000000001a4 .L0 
     /tmp/cc6xFtA5.s:293    .text:00000000000001a4 .L0 
     /tmp/cc6xFtA5.s:294    .text:00000000000001a4 .L0 
     /tmp/cc6xFtA5.s:297    .text:00000000000001b0 .L0 
     /tmp/cc6xFtA5.s:301    .text:00000000000001b4 .L0 
     /tmp/cc6xFtA5.s:302    .text:00000000000001b4 .L0 
     /tmp/cc6xFtA5.s:306    .text:00000000000001bc .L0 
     /tmp/cc6xFtA5.s:309    .text:00000000000001c8 .L0 
     /tmp/cc6xFtA5.s:312    .text:00000000000001d0 .L0 
     /tmp/cc6xFtA5.s:314    .text:00000000000001d4 .L0 
     /tmp/cc6xFtA5.s:315    .text:00000000000001d4 .L0 
     /tmp/cc6xFtA5.s:318    .text:00000000000001d8 .L0 
GAS LISTING /tmp/cc6xFtA5.s 			page 11


     /tmp/cc6xFtA5.s:320    .text:00000000000001dc .L0 
     /tmp/cc6xFtA5.s:330    .bss:0000000000000000 _ZN7console8bufferInE
     /tmp/cc6xFtA5.s:334    .bss:0000000000000008 _ZN7console9bufferOutE
     /tmp/cc6xFtA5.s:327    .bss:0000000000000000 .LANCHOR0
     /tmp/cc6xFtA5.s:344    .text:00000000000001dc .L0 
     /tmp/cc6xFtA5.s:42     .text:0000000000000034 .L0 
     /tmp/cc6xFtA5.s:57     .text:0000000000000058 .L0 
     /tmp/cc6xFtA5.s:143    .text:00000000000000c4 .L0 
     /tmp/cc6xFtA5.s:176    .text:00000000000000f4 .L0 
     /tmp/cc6xFtA5.s:211    .text:000000000000012c .L0 
     /tmp/cc6xFtA5.s:244    .text:000000000000015c .L0 
     /tmp/cc6xFtA5.s:294    .text:00000000000001a4 .L0 
     /tmp/cc6xFtA5.s:306    .text:00000000000001bc .L0 
     /tmp/cc6xFtA5.s:289    .text:00000000000001a4 .L19
     /tmp/cc6xFtA5.s:281    .text:000000000000019c .L17
     /tmp/cc6xFtA5.s:299    .text:00000000000001b4 .L18
     /tmp/cc6xFtA5.s:31     .text:000000000000001c .LEHB0
     /tmp/cc6xFtA5.s:10     .text:0000000000000000 .LFB35
     /tmp/cc6xFtA5.s:34     .text:0000000000000024 .LEHE0
     /tmp/cc6xFtA5.s:37     .text:000000000000002c .LEHB1
     /tmp/cc6xFtA5.s:40     .text:0000000000000034 .LEHE1
     /tmp/cc6xFtA5.s:72     .text:0000000000000078 .L4
     /tmp/cc6xFtA5.s:46     .text:0000000000000040 .LEHB2
     /tmp/cc6xFtA5.s:49     .text:0000000000000048 .LEHE2
     /tmp/cc6xFtA5.s:52     .text:0000000000000050 .LEHB3
     /tmp/cc6xFtA5.s:55     .text:0000000000000058 .LEHE3
     /tmp/cc6xFtA5.s:83     .text:0000000000000094 .L5
     /tmp/cc6xFtA5.s:80     .text:000000000000008c .LEHB4
     /tmp/cc6xFtA5.s:92     .text:00000000000000b0 .LEHE4
     /tmp/cc6xFtA5.s:1430   .debug_abbrev:0000000000000000 .Ldebug_abbrev0
     /tmp/cc6xFtA5.s:2528   .debug_str:00000000000005c4 .LASF111
     /tmp/cc6xFtA5.s:2432   .debug_str:0000000000000378 .LASF112
     /tmp/cc6xFtA5.s:2428   .debug_str:0000000000000353 .LASF113
     /tmp/cc6xFtA5.s:5      .text:0000000000000000 .Ltext0
     /tmp/cc6xFtA5.s:337    .text:00000000000001dc .Letext0
     /tmp/cc6xFtA5.s:2316   .debug_line:0000000000000000 .Ldebug_line0
     /tmp/cc6xFtA5.s:2402   .debug_str:0000000000000279 .LASF0
     /tmp/cc6xFtA5.s:2418   .debug_str:000000000000030a .LASF1
     /tmp/cc6xFtA5.s:2482   .debug_str:00000000000004c0 .LASF2
     /tmp/cc6xFtA5.s:2488   .debug_str:00000000000004e8 .LASF4
     /tmp/cc6xFtA5.s:2406   .debug_str:0000000000000290 .LASF3
     /tmp/cc6xFtA5.s:2326   .debug_str:0000000000000047 .LASF5
     /tmp/cc6xFtA5.s:2470   .debug_str:0000000000000472 .LASF6
     /tmp/cc6xFtA5.s:2468   .debug_str:000000000000045f .LASF7
     /tmp/cc6xFtA5.s:2414   .debug_str:00000000000002d5 .LASF8
     /tmp/cc6xFtA5.s:2390   .debug_str:000000000000020c .LASF9
     /tmp/cc6xFtA5.s:2400   .debug_str:000000000000026b .LASF10
     /tmp/cc6xFtA5.s:2350   .debug_str:00000000000000fb .LASF11
     /tmp/cc6xFtA5.s:2382   .debug_str:00000000000001d1 .LASF12
     /tmp/cc6xFtA5.s:2362   .debug_str:0000000000000141 .LASF13
     /tmp/cc6xFtA5.s:2348   .debug_str:00000000000000eb .LASF14
     /tmp/cc6xFtA5.s:2510   .debug_str:000000000000057a .LASF15
     /tmp/cc6xFtA5.s:2374   .debug_str:0000000000000192 .LASF16
     /tmp/cc6xFtA5.s:2500   .debug_str:000000000000052c .LASF17
     /tmp/cc6xFtA5.s:2516   .debug_str:0000000000000594 .LASF45
     /tmp/cc6xFtA5.s:2526   .debug_str:00000000000005bc .LASF18
     /tmp/cc6xFtA5.s:2396   .debug_str:0000000000000249 .LASF19
GAS LISTING /tmp/cc6xFtA5.s 			page 12


     /tmp/cc6xFtA5.s:2508   .debug_str:000000000000056d .LASF20
     /tmp/cc6xFtA5.s:2550   .debug_str:000000000000071e .LASF22
     /tmp/cc6xFtA5.s:2464   .debug_str:000000000000044c .LASF114
     /tmp/cc6xFtA5.s:2496   .debug_str:000000000000051e .LASF92
     /tmp/cc6xFtA5.s:2410   .debug_str:00000000000002ac .LASF94
     /tmp/cc6xFtA5.s:2524   .debug_str:00000000000005b7 .LASF21
     /tmp/cc6xFtA5.s:2388   .debug_str:00000000000001fb .LASF23
     /tmp/cc6xFtA5.s:2422   .debug_str:0000000000000327 .LASF24
     /tmp/cc6xFtA5.s:2530   .debug_str:0000000000000688 .LASF26
     /tmp/cc6xFtA5.s:2368   .debug_str:0000000000000164 .LASF25
     /tmp/cc6xFtA5.s:2356   .debug_str:0000000000000119 .LASF27
     /tmp/cc6xFtA5.s:2334   .debug_str:000000000000007f .LASF82
     /tmp/cc6xFtA5.s:2486   .debug_str:00000000000004d8 .LASF83
     /tmp/cc6xFtA5.s:2518   .debug_str:000000000000059c .LASF30
     /tmp/cc6xFtA5.s:2450   .debug_str:00000000000003f1 .LASF32
     /tmp/cc6xFtA5.s:2338   .debug_str:000000000000008a .LASF28
     /tmp/cc6xFtA5.s:2542   .debug_str:00000000000006e4 .LASF29
     /tmp/cc6xFtA5.s:2484   .debug_str:00000000000004ce .LASF31
     /tmp/cc6xFtA5.s:2344   .debug_str:00000000000000c5 .LASF33
     /tmp/cc6xFtA5.s:2520   .debug_str:00000000000005a7 .LASF34
     /tmp/cc6xFtA5.s:2378   .debug_str:00000000000001b5 .LASF35
     /tmp/cc6xFtA5.s:2424   .debug_str:000000000000032d .LASF36
     /tmp/cc6xFtA5.s:2472   .debug_str:0000000000000479 .LASF37
     /tmp/cc6xFtA5.s:2318   .debug_str:0000000000000000 .LASF38
     /tmp/cc6xFtA5.s:2442   .debug_str:00000000000003ba .LASF39
     /tmp/cc6xFtA5.s:2514   .debug_str:000000000000058d .LASF40
     /tmp/cc6xFtA5.s:2498   .debug_str:0000000000000523 .LASF41
     /tmp/cc6xFtA5.s:2460   .debug_str:000000000000043d .LASF42
     /tmp/cc6xFtA5.s:2430   .debug_str:000000000000036c .LASF43
     /tmp/cc6xFtA5.s:2532   .debug_str:0000000000000698 .LASF44
     /tmp/cc6xFtA5.s:2492   .debug_str:0000000000000506 .LASF85
     /tmp/cc6xFtA5.s:2342   .debug_str:00000000000000b7 .LASF115
     /tmp/cc6xFtA5.s:2426   .debug_str:000000000000033a .LASF116
     /tmp/cc6xFtA5.s:2366   .debug_str:0000000000000156 .LASF117
     /tmp/cc6xFtA5.s:2322   .debug_str:0000000000000015 .LASF118
     /tmp/cc6xFtA5.s:2546   .debug_str:000000000000070f .LASF46
     /tmp/cc6xFtA5.s:2352   .debug_str:000000000000010a .LASF47
     /tmp/cc6xFtA5.s:2490   .debug_str:00000000000004ef .LASF119
     /tmp/cc6xFtA5.s:2562   .debug_str:0000000000000795 .LASF48
     /tmp/cc6xFtA5.s:2480   .debug_str:00000000000004b9 .LASF49
     /tmp/cc6xFtA5.s:2538   .debug_str:00000000000006d1 .LASF50
     /tmp/cc6xFtA5.s:2522   .debug_str:00000000000005b2 .LASF51
     /tmp/cc6xFtA5.s:2434   .debug_str:0000000000000388 .LASF52
     /tmp/cc6xFtA5.s:2384   .debug_str:00000000000001e0 .LASF53
     /tmp/cc6xFtA5.s:2548   .debug_str:0000000000000717 .LASF54
     /tmp/cc6xFtA5.s:2504   .debug_str:0000000000000556 .LASF55
     /tmp/cc6xFtA5.s:2454   .debug_str:000000000000042b .LASF56
     /tmp/cc6xFtA5.s:2506   .debug_str:000000000000055b .LASF57
     /tmp/cc6xFtA5.s:2354   .debug_str:000000000000010f .LASF58
     /tmp/cc6xFtA5.s:2412   .debug_str:00000000000002bb .LASF59
     /tmp/cc6xFtA5.s:2404   .debug_str:0000000000000286 .LASF60
     /tmp/cc6xFtA5.s:2536   .debug_str:00000000000006b7 .LASF61
     /tmp/cc6xFtA5.s:2456   .debug_str:0000000000000430 .LASF62
     /tmp/cc6xFtA5.s:2534   .debug_str:00000000000006a2 .LASF63
     /tmp/cc6xFtA5.s:2332   .debug_str:0000000000000079 .LASF64
     /tmp/cc6xFtA5.s:2328   .debug_str:000000000000004e .LASF65
     /tmp/cc6xFtA5.s:2370   .debug_str:000000000000016d .LASF66
GAS LISTING /tmp/cc6xFtA5.s 			page 13


     /tmp/cc6xFtA5.s:2552   .debug_str:0000000000000740 .LASF67
     /tmp/cc6xFtA5.s:2512   .debug_str:0000000000000586 .LASF68
     /tmp/cc6xFtA5.s:2392   .debug_str:000000000000021c .LASF69
     /tmp/cc6xFtA5.s:2438   .debug_str:00000000000003a4 .LASF70
     /tmp/cc6xFtA5.s:2494   .debug_str:0000000000000517 .LASF71
     /tmp/cc6xFtA5.s:2324   .debug_str:000000000000003d .LASF72
     /tmp/cc6xFtA5.s:2364   .debug_str:0000000000000151 .LASF73
     /tmp/cc6xFtA5.s:2466   .debug_str:0000000000000451 .LASF74
     /tmp/cc6xFtA5.s:2440   .debug_str:00000000000003ac .LASF75
     /tmp/cc6xFtA5.s:2420   .debug_str:000000000000031d .LASF76
     /tmp/cc6xFtA5.s:2446   .debug_str:00000000000003d4 .LASF77
     /tmp/cc6xFtA5.s:2358   .debug_str:000000000000012c .LASF78
     /tmp/cc6xFtA5.s:2346   .debug_str:00000000000000da .LASF120
     /tmp/cc6xFtA5.s:2386   .debug_str:00000000000001ea .LASF121
     /tmp/cc6xFtA5.s:2476   .debug_str:00000000000004a1 .LASF79
     /tmp/cc6xFtA5.s:2544   .debug_str:00000000000006fb .LASF80
     /tmp/cc6xFtA5.s:2458   .debug_str:0000000000000435 .LASF81
     /tmp/cc6xFtA5.s:2444   .debug_str:00000000000003c4 .LASF84
     /tmp/cc6xFtA5.s:2540   .debug_str:00000000000006db .LASF86
     /tmp/cc6xFtA5.s:2408   .debug_str:00000000000002a2 .LASF87
     /tmp/cc6xFtA5.s:2336   .debug_str:0000000000000085 .LASF88
     /tmp/cc6xFtA5.s:2448   .debug_str:00000000000003de .LASF89
     /tmp/cc6xFtA5.s:2478   .debug_str:00000000000004a8 .LASF90
     /tmp/cc6xFtA5.s:2372   .debug_str:0000000000000172 .LASF91
     /tmp/cc6xFtA5.s:2560   .debug_str:0000000000000782 .LASF93
     /tmp/cc6xFtA5.s:2416   .debug_str:00000000000002e8 .LASF95
     /tmp/cc6xFtA5.s:2564   .debug_str:000000000000079b .LASF96
     /tmp/cc6xFtA5.s:2340   .debug_str:0000000000000096 .LASF97
     /tmp/cc6xFtA5.s:2502   .debug_str:0000000000000542 .LASF98
     /tmp/cc6xFtA5.s:2452   .debug_str:0000000000000408 .LASF99
     /tmp/cc6xFtA5.s:2436   .debug_str:000000000000038d .LASF100
     /tmp/cc6xFtA5.s:2394   .debug_str:0000000000000233 .LASF101
     /tmp/cc6xFtA5.s:2554   .debug_str:0000000000000755 .LASF102
     /tmp/cc6xFtA5.s:2558   .debug_str:0000000000000770 .LASF103
     /tmp/cc6xFtA5.s:264    .text:0000000000000180 .LFB40
     /tmp/cc6xFtA5.s:321    .text:00000000000001dc .LFE40
     /tmp/cc6xFtA5.s:2308   .debug_ranges:0000000000000000 .Ldebug_ranges0
     /tmp/cc6xFtA5.s:2360   .debug_str:000000000000013b .LASF104
     /tmp/cc6xFtA5.s:2256   .debug_loc:0000000000000000 .LLST2
     /tmp/cc6xFtA5.s:286    .text:00000000000001a4 .LVL17
     /tmp/cc6xFtA5.s:310    .text:00000000000001d0 .LVL20
     /tmp/cc6xFtA5.s:231    .text:000000000000014c .LFB39
     /tmp/cc6xFtA5.s:258    .text:0000000000000180 .LFE39
     /tmp/cc6xFtA5.s:246    .text:000000000000016c .LVL15
     /tmp/cc6xFtA5.s:196    .text:0000000000000118 .LFB38
     /tmp/cc6xFtA5.s:225    .text:000000000000014c .LFE38
     /tmp/cc6xFtA5.s:2267   .debug_loc:0000000000000036 .LLST1
     /tmp/cc6xFtA5.s:214    .text:000000000000013c .LVL14
     /tmp/cc6xFtA5.s:163    .text:00000000000000e4 .LFB37
     /tmp/cc6xFtA5.s:190    .text:0000000000000118 .LFE37
     /tmp/cc6xFtA5.s:178    .text:0000000000000104 .LVL11
     /tmp/cc6xFtA5.s:128    .text:00000000000000b0 .LFB36
     /tmp/cc6xFtA5.s:157    .text:00000000000000e4 .LFE36
     /tmp/cc6xFtA5.s:2281   .debug_loc:000000000000006f .LLST0
     /tmp/cc6xFtA5.s:146    .text:00000000000000d4 .LVL10
     /tmp/cc6xFtA5.s:94     .text:00000000000000b0 .LFE35
     /tmp/cc6xFtA5.s:33     .text:0000000000000024 .LVL0
GAS LISTING /tmp/cc6xFtA5.s 			page 14


     /tmp/cc6xFtA5.s:39     .text:0000000000000034 .LVL1
     /tmp/cc6xFtA5.s:48     .text:0000000000000048 .LVL2
     /tmp/cc6xFtA5.s:54     .text:0000000000000058 .LVL3
     /tmp/cc6xFtA5.s:78     .text:0000000000000088 .LVL4
     /tmp/cc6xFtA5.s:82     .text:0000000000000094 .LVL5
     /tmp/cc6xFtA5.s:88     .text:00000000000000a4 .LVL6
     /tmp/cc6xFtA5.s:91     .text:00000000000000b0 .LVL7
     /tmp/cc6xFtA5.s:2330   .debug_str:0000000000000064 .LASF122
     /tmp/cc6xFtA5.s:2474   .debug_str:0000000000000491 .LASF123
     /tmp/cc6xFtA5.s:2380   .debug_str:00000000000001cb .LASF105
     /tmp/cc6xFtA5.s:2376   .debug_str:00000000000001a8 .LASF107
     /tmp/cc6xFtA5.s:2462   .debug_str:0000000000000445 .LASF106
     /tmp/cc6xFtA5.s:2320   .debug_str:0000000000000005 .LASF108
     /tmp/cc6xFtA5.s:2556   .debug_str:0000000000000761 .LASF109
     /tmp/cc6xFtA5.s:2398   .debug_str:0000000000000253 .LASF110
     /tmp/cc6xFtA5.s:298    .text:00000000000001b4 .LVL18
     /tmp/cc6xFtA5.s:303    .text:00000000000001b8 .LVL19
     /tmp/cc6xFtA5.s:316    .text:00000000000001d8 .LVL21
     /tmp/cc6xFtA5.s:199    .text:0000000000000118 .LVL12
     /tmp/cc6xFtA5.s:212    .text:0000000000000134 .LVL13
     /tmp/cc6xFtA5.s:131    .text:00000000000000b0 .LVL8
     /tmp/cc6xFtA5.s:144    .text:00000000000000cc .LVL9
     /tmp/cc6xFtA5.s:345    .debug_info:0000000000000000 .Ldebug_info0
     /tmp/cc6xFtA5.s:282    .text:000000000000019c .LBB2
     /tmp/cc6xFtA5.s:287    .text:00000000000001a4 .LBE2
     /tmp/cc6xFtA5.s:291    .text:00000000000001a4 .LBB3
     /tmp/cc6xFtA5.s:319    .text:00000000000001dc .LBE3
     /tmp/cc6xFtA5.s:97     .gcc_except_table:0000000000000000 .LLSDA35

UNDEFINED SYMBOLS
_Znwm
_ZN6bufferC1Ei
_ZdlPv
_Unwind_Resume
__gxx_personality_v0
_ZN6buffer3putEc
_ZN6buffer3getEv
_Z15thread_dispatchv
CONSOLE_STATUS
CONSOLE_TX_DATA
