GAS LISTING /tmp/cc5kwmKQ.s 			page 1


   1              		.file	"Scheduler.cpp"
   2              		.option pic
   3              		.option norelax
   4              		.text
   5              	.Ltext0:
   6              		.align	2
   7              		.globl	_ZN9Scheduler8idleBodyEPv
   9              	_ZN9Scheduler8idleBodyEPv:
  10              	.LFB32:
  11              		.file 1 "src/Scheduler.cpp"
   1:src/Scheduler.cpp **** #include "../h/Scheduler.hpp"
   2:src/Scheduler.cpp **** #include "../h/syscall_c.h"
   3:src/Scheduler.cpp **** 
   4:src/Scheduler.cpp **** TCB* Scheduler::idle = nullptr;
   5:src/Scheduler.cpp **** void Scheduler::idleBody(void* arg) {
  12              		.loc 1 5 37
  13              		.cfi_startproc
  14              	.LVL0:
  15 0000 130101FF 		addi	sp,sp,-16
  16              		.cfi_def_cfa_offset 16
  17 0004 23341100 		sd	ra,8(sp)
  18 0008 23308100 		sd	s0,0(sp)
  19              		.cfi_offset 1, -8
  20              		.cfi_offset 8, -16
  21 000c 13040101 		addi	s0,sp,16
  22              		.cfi_def_cfa 8, 0
   6:src/Scheduler.cpp ****     //Riscv::ms_sstatus(Riscv::SSTATUS_SIE);
   7:src/Scheduler.cpp ****     changeToUser();
  23              		.loc 1 7 5
  24              		.loc 1 7 17 is_stmt 0
  25 0010 97000000 		call	_Z12changeToUserv@plt
  25      E7800000 
  26              	.LVL1:
  27              	.L2:
   8:src/Scheduler.cpp ****     while(true){
  28              		.loc 1 8 5 is_stmt 1 discriminator 1
   9:src/Scheduler.cpp ****         thread_dispatch();
  29              		.loc 1 9 9 discriminator 1
  30              		.loc 1 9 24 is_stmt 0 discriminator 1
  31 0018 97000000 		call	_Z15thread_dispatchv@plt
  31      E7800000 
  32              	.LVL2:
   8:src/Scheduler.cpp ****     while(true){
  33              		.loc 1 8 5 is_stmt 1 discriminator 1
  34 0020 6FF09FFF 		j	.L2
  35              		.cfi_endproc
  36              	.LFE32:
  38              		.align	2
  39              		.globl	_ZN9Scheduler19instanceOfSchedulerEv
  41              	_ZN9Scheduler19instanceOfSchedulerEv:
  42              	.LFB33:
  10:src/Scheduler.cpp ****     }
  11:src/Scheduler.cpp **** }
  12:src/Scheduler.cpp **** 
  13:src/Scheduler.cpp **** Scheduler &Scheduler::instanceOfScheduler() {
  43              		.loc 1 13 45
  44              		.cfi_startproc
GAS LISTING /tmp/cc5kwmKQ.s 			page 2


  45 0024 130101FF 		addi	sp,sp,-16
  46              		.cfi_def_cfa_offset 16
  47 0028 23348100 		sd	s0,8(sp)
  48              		.cfi_offset 8, -8
  49 002c 13040101 		addi	s0,sp,16
  50              		.cfi_def_cfa 8, 0
  14:src/Scheduler.cpp ****     static Scheduler singleton;
  51              		.loc 1 14 5
  15:src/Scheduler.cpp ****     return singleton;
  52              		.loc 1 15 5
  16:src/Scheduler.cpp **** }
  53              		.loc 1 16 1 is_stmt 0
  54 0030 17050000 		lla	a0,.LANCHOR0
  54      13050500 
  55 0038 03348100 		ld	s0,8(sp)
  56              		.cfi_restore 8
  57              		.cfi_def_cfa 2, 16
  58 003c 13010101 		addi	sp,sp,16
  59              		.cfi_def_cfa_offset 0
  60 0040 67800000 		jr	ra
  61              		.cfi_endproc
  62              	.LFE33:
  64              		.align	2
  65              		.globl	_ZN9Scheduler3putEP3TCB
  67              	_ZN9Scheduler3putEP3TCB:
  68              	.LFB37:
  17:src/Scheduler.cpp **** 
  18:src/Scheduler.cpp **** void Scheduler::put(TCB *tcb) {
  69              		.loc 1 18 31 is_stmt 1
  70              		.cfi_startproc
  71              	.LVL3:
  19:src/Scheduler.cpp ****     if(!tcb) return;
  72              		.loc 1 19 5
  73 0044 638A0506 		beqz	a1,.L11
  18:src/Scheduler.cpp ****     if(!tcb) return;
  74              		.loc 1 18 31 is_stmt 0
  75 0048 130101FE 		addi	sp,sp,-32
  76              		.cfi_def_cfa_offset 32
  77 004c 233C1100 		sd	ra,24(sp)
  78 0050 23388100 		sd	s0,16(sp)
  79 0054 23349100 		sd	s1,8(sp)
  80 0058 23302101 		sd	s2,0(sp)
  81              		.cfi_offset 1, -8
  82              		.cfi_offset 8, -16
  83              		.cfi_offset 9, -24
  84              		.cfi_offset 18, -32
  85 005c 13040102 		addi	s0,sp,32
  86              		.cfi_def_cfa 8, 0
  87 0060 93040500 		mv	s1,a0
  88 0064 13890500 		mv	s2,a1
  20:src/Scheduler.cpp ****     Elem* newElem = (Elem*) MemoryAllocator::instance().mem_alloc((sizeof(Elem) + MEM_BLOCK_SIZE - 
  89              		.loc 1 20 5 is_stmt 1
  90              		.loc 1 20 55 is_stmt 0
  91 0068 97000000 		call	_ZN15MemoryAllocator8instanceEv@plt
  91      E7800000 
  92              	.LVL4:
  93              		.loc 1 20 66
GAS LISTING /tmp/cc5kwmKQ.s 			page 3


  94 0070 93051000 		li	a1,1
  95 0074 97000000 		call	_ZN15MemoryAllocator9mem_allocEm@plt
  95      E7800000 
  96              	.LVL5:
  21:src/Scheduler.cpp ****     newElem->thread = tcb;
  97              		.loc 1 21 5 is_stmt 1
  98              		.loc 1 21 21 is_stmt 0
  99 007c 23302501 		sd	s2,0(a0)
  22:src/Scheduler.cpp ****     newElem->next = nullptr;
 100              		.loc 1 22 5 is_stmt 1
 101              		.loc 1 22 19 is_stmt 0
 102 0080 23340500 		sd	zero,8(a0)
  23:src/Scheduler.cpp ****     if(!head) head = newElem;
 103              		.loc 1 23 5 is_stmt 1
 104              		.loc 1 23 9 is_stmt 0
 105 0084 83B78400 		ld	a5,8(s1)
 106              		.loc 1 23 5
 107 0088 63840702 		beqz	a5,.L14
  24:src/Scheduler.cpp ****     else tail->next = newElem;
 108              		.loc 1 24 10 is_stmt 1
 109 008c 83B70400 		ld	a5,0(s1)
 110              		.loc 1 24 21 is_stmt 0
 111 0090 23B4A700 		sd	a0,8(a5)
 112              	.L9:
  25:src/Scheduler.cpp ****     tail = newElem;
 113              		.loc 1 25 5 is_stmt 1
 114              		.loc 1 25 10 is_stmt 0
 115 0094 23B0A400 		sd	a0,0(s1)
  26:src/Scheduler.cpp **** }
 116              		.loc 1 26 1
 117 0098 83308101 		ld	ra,24(sp)
 118              		.cfi_remember_state
 119              		.cfi_restore 1
 120 009c 03340101 		ld	s0,16(sp)
 121              		.cfi_restore 8
 122              		.cfi_def_cfa 2, 32
 123 00a0 83348100 		ld	s1,8(sp)
 124              		.cfi_restore 9
 125              	.LVL6:
 126 00a4 03390100 		ld	s2,0(sp)
 127              		.cfi_restore 18
 128              	.LVL7:
 129 00a8 13010102 		addi	sp,sp,32
 130              		.cfi_def_cfa_offset 0
 131 00ac 67800000 		jr	ra
 132              	.LVL8:
 133              	.L14:
 134              		.cfi_restore_state
  23:src/Scheduler.cpp ****     else tail->next = newElem;
 135              		.loc 1 23 15 is_stmt 1 discriminator 1
  23:src/Scheduler.cpp ****     else tail->next = newElem;
 136              		.loc 1 23 20 is_stmt 0 discriminator 1
 137 00b0 23B4A400 		sd	a0,8(s1)
 138 00b4 6FF01FFE 		j	.L9
 139              	.LVL9:
 140              	.L11:
 141              		.cfi_def_cfa_register 2
GAS LISTING /tmp/cc5kwmKQ.s 			page 4


 142              		.cfi_restore 1
 143              		.cfi_restore 8
 144              		.cfi_restore 9
 145              		.cfi_restore 18
 146 00b8 67800000 		ret
 147              		.cfi_endproc
 148              	.LFE37:
 150              		.align	2
 151              		.globl	_ZN9Scheduler3getEv
 153              	_ZN9Scheduler3getEv:
 154              	.LFB38:
  27:src/Scheduler.cpp **** 
  28:src/Scheduler.cpp **** TCB *Scheduler::get() {
 155              		.loc 1 28 23 is_stmt 1
 156              		.cfi_startproc
 157              	.LVL10:
 158 00bc 130101FE 		addi	sp,sp,-32
 159              		.cfi_def_cfa_offset 32
 160 00c0 233C1100 		sd	ra,24(sp)
 161 00c4 23388100 		sd	s0,16(sp)
 162 00c8 23349100 		sd	s1,8(sp)
 163 00cc 23302101 		sd	s2,0(sp)
 164              		.cfi_offset 1, -8
 165              		.cfi_offset 8, -16
 166              		.cfi_offset 9, -24
 167              		.cfi_offset 18, -32
 168 00d0 13040102 		addi	s0,sp,32
 169              		.cfi_def_cfa 8, 0
  29:src/Scheduler.cpp ****     if(!head) return idle;
 170              		.loc 1 29 5
 171              		.loc 1 29 9 is_stmt 0
 172 00d4 83348500 		ld	s1,8(a0)
 173              		.loc 1 29 5
 174 00d8 63820404 		beqz	s1,.L20
  30:src/Scheduler.cpp ****     Elem* removed = head;
 175              		.loc 1 30 5 is_stmt 1
 176              	.LVL11:
  31:src/Scheduler.cpp ****     head = head->next;
 177              		.loc 1 31 5
 178              		.loc 1 31 18 is_stmt 0
 179 00dc 83B78400 		ld	a5,8(s1)
 180              		.loc 1 31 10
 181 00e0 2334F500 		sd	a5,8(a0)
  32:src/Scheduler.cpp ****     if(!head) tail = nullptr;
 182              		.loc 1 32 5 is_stmt 1
 183 00e4 63820704 		beqz	a5,.L21
 184              	.L18:
  33:src/Scheduler.cpp **** 
  34:src/Scheduler.cpp ****     TCB* thread = removed->thread;
 185              		.loc 1 34 5
 186              		.loc 1 34 10 is_stmt 0
 187 00e8 03B90400 		ld	s2,0(s1)
 188              	.LVL12:
  35:src/Scheduler.cpp ****     MemoryAllocator::instance().mem_free(removed);
 189              		.loc 1 35 5 is_stmt 1
 190              		.loc 1 35 31 is_stmt 0
 191 00ec 97000000 		call	_ZN15MemoryAllocator8instanceEv@plt
GAS LISTING /tmp/cc5kwmKQ.s 			page 5


 191      E7800000 
 192              	.LVL13:
 193              		.loc 1 35 41
 194 00f4 93850400 		mv	a1,s1
 195 00f8 97000000 		call	_ZN15MemoryAllocator8mem_freeEPv@plt
 195      E7800000 
 196              	.LVL14:
  36:src/Scheduler.cpp ****     return thread;
 197              		.loc 1 36 5 is_stmt 1
 198              	.L15:
  37:src/Scheduler.cpp **** }
 199              		.loc 1 37 1 is_stmt 0
 200 0100 13050900 		mv	a0,s2
 201 0104 83308101 		ld	ra,24(sp)
 202              		.cfi_remember_state
 203              		.cfi_restore 1
 204 0108 03340101 		ld	s0,16(sp)
 205              		.cfi_restore 8
 206              		.cfi_def_cfa 2, 32
 207 010c 83348100 		ld	s1,8(sp)
 208              		.cfi_restore 9
 209 0110 03390100 		ld	s2,0(sp)
 210              		.cfi_restore 18
 211 0114 13010102 		addi	sp,sp,32
 212              		.cfi_def_cfa_offset 0
 213 0118 67800000 		jr	ra
 214              	.LVL15:
 215              	.L20:
 216              		.cfi_restore_state
  29:src/Scheduler.cpp ****     Elem* removed = head;
 217              		.loc 1 29 15 is_stmt 1 discriminator 1
  29:src/Scheduler.cpp ****     Elem* removed = head;
 218              		.loc 1 29 22 is_stmt 0 discriminator 1
 219 011c 17090000 		ld	s2,.LANCHOR0+16
 219      03390900 
 220 0124 6FF0DFFD 		j	.L15
 221              	.LVL16:
 222              	.L21:
  32:src/Scheduler.cpp **** 
 223              		.loc 1 32 15 is_stmt 1 discriminator 1
  32:src/Scheduler.cpp **** 
 224              		.loc 1 32 20 is_stmt 0 discriminator 1
 225 0128 23300500 		sd	zero,0(a0)
 226 012c 6FF0DFFB 		j	.L18
 227              		.cfi_endproc
 228              	.LFE38:
 230              		.globl	_ZN9Scheduler4idleE
 231              		.bss
 232              		.align	3
 233              		.set	.LANCHOR0,. + 0
 236              	_ZZN9Scheduler19instanceOfSchedulerEvE9singleton:
 237 0000 00000000 		.zero	16
 237      00000000 
 237      00000000 
 237      00000000 
 240              	_ZN9Scheduler4idleE:
 241 0010 00000000 		.zero	8
GAS LISTING /tmp/cc5kwmKQ.s 			page 6


 241      00000000 
 242              		.text
 243              	.Letext0:
 244              		.file 2 "src/../h/../h/../lib/hw.h"
 245              		.file 3 "src/../h/../h/MemoryAllocator.hpp"
 246              		.file 4 "src/../h/Scheduler.hpp"
 247              		.file 5 "src/../h/../h/tcb.hpp"
 248              		.file 6 "src/../h/syscall_c.h"
GAS LISTING /tmp/cc5kwmKQ.s 			page 7

