GAS LISTING /tmp/cc2PsAL2.s 			page 1


   1              		.file	"syscall_cpp.cpp"
   2              		.option pic
   3              		.option norelax
   4              		.text
   5              	.Ltext0:
   6              		.section	.text._ZN6Thread3runEv,"axG",@progbits,_ZN6Thread3runEv,comdat
   7              		.align	2
   8              		.weak	_ZN6Thread3runEv
  10              	_ZN6Thread3runEv:
  11              	.LFB32:
  12              		.file 1 "src/../h/syscall_cpp.hpp"
   1:src/../h/syscall_cpp.hpp **** #ifndef OS_PROJEKAT_SYSCALL_CPP_H
   2:src/../h/syscall_cpp.hpp **** #define OS_PROJEKAT_SYSCALL_CPP_H
   3:src/../h/syscall_cpp.hpp **** 
   4:src/../h/syscall_cpp.hpp **** #include "../h/syscall_c.h"
   5:src/../h/syscall_cpp.hpp **** #include "../h/semaphore.hpp"
   6:src/../h/syscall_cpp.hpp **** 
   7:src/../h/syscall_cpp.hpp **** void* operator new (size_t);
   8:src/../h/syscall_cpp.hpp **** void operator delete (void*);
   9:src/../h/syscall_cpp.hpp **** //void* ::operator new[] (size_t);
  10:src/../h/syscall_cpp.hpp **** //void ::operator delete[] (void*);
  11:src/../h/syscall_cpp.hpp **** 
  12:src/../h/syscall_cpp.hpp **** class Thread {
  13:src/../h/syscall_cpp.hpp **** public:
  14:src/../h/syscall_cpp.hpp ****     Thread (void (*body)(void*), void* arg);
  15:src/../h/syscall_cpp.hpp ****     virtual ~Thread ();
  16:src/../h/syscall_cpp.hpp ****     int start ();
  17:src/../h/syscall_cpp.hpp ****     void join();
  18:src/../h/syscall_cpp.hpp ****     static void dispatch ();
  19:src/../h/syscall_cpp.hpp ****     static int sleep (time_t);
  20:src/../h/syscall_cpp.hpp **** protected:
  21:src/../h/syscall_cpp.hpp ****     Thread ();
  22:src/../h/syscall_cpp.hpp ****     virtual void run () {}
  13              		.loc 1 22 18
  14              		.cfi_startproc
  15              	.LVL0:
  16 0000 130101FF 		addi	sp,sp,-16
  17              		.cfi_def_cfa_offset 16
  18 0004 23348100 		sd	s0,8(sp)
  19              		.cfi_offset 8, -8
  20 0008 13040101 		addi	s0,sp,16
  21              		.cfi_def_cfa 8, 0
  22              		.loc 1 22 26 is_stmt 0
  23 000c 03348100 		ld	s0,8(sp)
  24              		.cfi_restore 8
  25              		.cfi_def_cfa 2, 16
  26 0010 13010101 		addi	sp,sp,16
  27              		.cfi_def_cfa_offset 0
  28 0014 67800000 		jr	ra
  29              		.cfi_endproc
  30              	.LFE32:
  32              		.section	.text._ZN14PeriodicThread18periodicActivationEv,"axG",@progbits,_ZN14PeriodicThread18peri
  33              		.align	2
  34              		.weak	_ZN14PeriodicThread18periodicActivationEv
  36              	_ZN14PeriodicThread18periodicActivationEv:
  37              	.LFB33:
  23:src/../h/syscall_cpp.hpp **** private:
GAS LISTING /tmp/cc2PsAL2.s 			page 2


  24:src/../h/syscall_cpp.hpp ****     thread_t myHandle;
  25:src/../h/syscall_cpp.hpp ****     void (*body)(void*);
  26:src/../h/syscall_cpp.hpp ****     void* arg;
  27:src/../h/syscall_cpp.hpp ****     static void wrapper(void*);
  28:src/../h/syscall_cpp.hpp **** };
  29:src/../h/syscall_cpp.hpp **** 
  30:src/../h/syscall_cpp.hpp **** class Semaphore {
  31:src/../h/syscall_cpp.hpp **** public:
  32:src/../h/syscall_cpp.hpp ****     Semaphore (unsigned init = 1);
  33:src/../h/syscall_cpp.hpp ****     virtual ~Semaphore ();
  34:src/../h/syscall_cpp.hpp ****     int wait ();
  35:src/../h/syscall_cpp.hpp ****     int signal ();
  36:src/../h/syscall_cpp.hpp **** private:
  37:src/../h/syscall_cpp.hpp ****     sem_t myHandle;
  38:src/../h/syscall_cpp.hpp **** };
  39:src/../h/syscall_cpp.hpp **** 
  40:src/../h/syscall_cpp.hpp **** class PeriodicThread : public Thread {
  41:src/../h/syscall_cpp.hpp **** public:
  42:src/../h/syscall_cpp.hpp ****     void terminate ();
  43:src/../h/syscall_cpp.hpp **** protected:
  44:src/../h/syscall_cpp.hpp ****     PeriodicThread (time_t period);
  45:src/../h/syscall_cpp.hpp ****     virtual void periodicActivation () {}
  38              		.loc 1 45 18 is_stmt 1
  39              		.cfi_startproc
  40              	.LVL1:
  41 0000 130101FF 		addi	sp,sp,-16
  42              		.cfi_def_cfa_offset 16
  43 0004 23348100 		sd	s0,8(sp)
  44              		.cfi_offset 8, -8
  45 0008 13040101 		addi	s0,sp,16
  46              		.cfi_def_cfa 8, 0
  47              		.loc 1 45 41 is_stmt 0
  48 000c 03348100 		ld	s0,8(sp)
  49              		.cfi_restore 8
  50              		.cfi_def_cfa 2, 16
  51 0010 13010101 		addi	sp,sp,16
  52              		.cfi_def_cfa_offset 0
  53 0014 67800000 		jr	ra
  54              		.cfi_endproc
  55              	.LFE33:
  57              		.text
  58              		.align	2
  59              		.globl	_ZN6Thread7wrapperEPv
  61              	_ZN6Thread7wrapperEPv:
  62              	.LFB47:
  63              		.file 2 "src/syscall_cpp.cpp"
   1:src/syscall_cpp.cpp **** #include "../h/syscall_cpp.hpp"
   2:src/syscall_cpp.cpp **** 
   3:src/syscall_cpp.cpp **** void *operator new(size_t n){
   4:src/syscall_cpp.cpp ****     return mem_alloc(n);
   5:src/syscall_cpp.cpp **** }
   6:src/syscall_cpp.cpp **** 
   7:src/syscall_cpp.cpp **** void operator delete(void *p) {
   8:src/syscall_cpp.cpp ****     mem_free(p);
   9:src/syscall_cpp.cpp **** }
  10:src/syscall_cpp.cpp **** 
  11:src/syscall_cpp.cpp **** //Thread
GAS LISTING /tmp/cc2PsAL2.s 			page 3


  12:src/syscall_cpp.cpp **** Thread::Thread(void (*body)(void *), void *arg) {
  13:src/syscall_cpp.cpp ****     thread_create(&myHandle, body, arg);
  14:src/syscall_cpp.cpp **** }
  15:src/syscall_cpp.cpp **** Thread::~Thread(){
  16:src/syscall_cpp.cpp ****     delete myHandle;
  17:src/syscall_cpp.cpp **** }
  18:src/syscall_cpp.cpp **** int Thread::start() {
  19:src/syscall_cpp.cpp ****     Scheduler::instanceOfScheduler().put(myHandle);
  20:src/syscall_cpp.cpp ****     return 0;
  21:src/syscall_cpp.cpp **** }
  22:src/syscall_cpp.cpp **** void Thread::join() {
  23:src/syscall_cpp.cpp ****     thread_join(myHandle);
  24:src/syscall_cpp.cpp **** }
  25:src/syscall_cpp.cpp **** void Thread::dispatch() {
  26:src/syscall_cpp.cpp ****     thread_dispatch();
  27:src/syscall_cpp.cpp **** }
  28:src/syscall_cpp.cpp **** int Thread::sleep(time_t time) {
  29:src/syscall_cpp.cpp ****     return time_sleep(time);
  30:src/syscall_cpp.cpp **** }
  31:src/syscall_cpp.cpp **** void Thread::wrapper(void * thread) {
  64              		.loc 2 31 37 is_stmt 1
  65              		.cfi_startproc
  66              	.LVL2:
  67 0000 130101FF 		addi	sp,sp,-16
  68              		.cfi_def_cfa_offset 16
  69 0004 23341100 		sd	ra,8(sp)
  70 0008 23308100 		sd	s0,0(sp)
  71              		.cfi_offset 1, -8
  72              		.cfi_offset 8, -16
  73 000c 13040101 		addi	s0,sp,16
  74              		.cfi_def_cfa 8, 0
  32:src/syscall_cpp.cpp ****     Thread* t = (Thread*) thread;
  75              		.loc 2 32 5
  76              	.LVL3:
  33:src/syscall_cpp.cpp ****     t->run();
  77              		.loc 2 33 5
  78              		.loc 2 33 12 is_stmt 0
  79 0010 83370500 		ld	a5,0(a0)
  80 0014 83B70701 		ld	a5,16(a5)
  81              		.loc 2 33 11
  82 0018 E7800700 		jalr	a5
  83              	.LVL4:
  34:src/syscall_cpp.cpp **** }
  84              		.loc 2 34 1
  85 001c 83308100 		ld	ra,8(sp)
  86              		.cfi_restore 1
  87 0020 03340100 		ld	s0,0(sp)
  88              		.cfi_restore 8
  89              		.cfi_def_cfa 2, 16
  90 0024 13010101 		addi	sp,sp,16
  91              		.cfi_def_cfa_offset 0
  92 0028 67800000 		jr	ra
  93              		.cfi_endproc
  94              	.LFE47:
  96              		.align	2
  97              		.globl	_ZN14PeriodicThread3runEv
  99              	_ZN14PeriodicThread3runEv:
GAS LISTING /tmp/cc2PsAL2.s 			page 4


 100              	.LFB64:
  35:src/syscall_cpp.cpp **** Thread::Thread(){
  36:src/syscall_cpp.cpp ****     thread_create_no(&myHandle, wrapper, this);
  37:src/syscall_cpp.cpp **** }
  38:src/syscall_cpp.cpp **** 
  39:src/syscall_cpp.cpp **** //Semaphore
  40:src/syscall_cpp.cpp **** Semaphore::Semaphore(unsigned int init) {
  41:src/syscall_cpp.cpp ****     sem_open(&myHandle, init);
  42:src/syscall_cpp.cpp **** }
  43:src/syscall_cpp.cpp **** Semaphore::~Semaphore(){
  44:src/syscall_cpp.cpp ****     sem_close(myHandle);
  45:src/syscall_cpp.cpp **** }
  46:src/syscall_cpp.cpp **** int Semaphore::wait(){
  47:src/syscall_cpp.cpp ****     return sem_wait(myHandle);
  48:src/syscall_cpp.cpp **** }
  49:src/syscall_cpp.cpp **** int Semaphore::signal(){
  50:src/syscall_cpp.cpp ****     return sem_signal(myHandle);
  51:src/syscall_cpp.cpp **** }
  52:src/syscall_cpp.cpp **** 
  53:src/syscall_cpp.cpp **** //Periodic thread
  54:src/syscall_cpp.cpp **** PeriodicThread::PeriodicThread(time_t period) {
  55:src/syscall_cpp.cpp ****     this->period = period;
  56:src/syscall_cpp.cpp **** }
  57:src/syscall_cpp.cpp **** void PeriodicThread::terminate() {
  58:src/syscall_cpp.cpp ****     finished = 1;
  59:src/syscall_cpp.cpp **** }
  60:src/syscall_cpp.cpp **** void PeriodicThread::run() {
 101              		.loc 2 60 28 is_stmt 1
 102              		.cfi_startproc
 103              	.LVL5:
 104 002c 130101FE 		addi	sp,sp,-32
 105              		.cfi_def_cfa_offset 32
 106 0030 233C1100 		sd	ra,24(sp)
 107 0034 23388100 		sd	s0,16(sp)
 108 0038 23349100 		sd	s1,8(sp)
 109              		.cfi_offset 1, -8
 110              		.cfi_offset 8, -16
 111              		.cfi_offset 9, -24
 112 003c 13040102 		addi	s0,sp,32
 113              		.cfi_def_cfa 8, 0
 114 0040 93040500 		mv	s1,a0
 115              	.LVL6:
 116              	.L9:
  61:src/syscall_cpp.cpp ****     while(!finished){
 117              		.loc 2 61 5
 118              		.loc 2 61 11
 119              		.loc 2 61 12 is_stmt 0
 120 0044 83A78402 		lw	a5,40(s1)
 121              		.loc 2 61 11
 122 0048 63920702 		bnez	a5,.L7
  62:src/syscall_cpp.cpp ****         time_sleep(this->period);
 123              		.loc 2 62 9 is_stmt 1
 124              		.loc 2 62 19 is_stmt 0
 125 004c 03B50402 		ld	a0,32(s1)
 126 0050 97000000 		call	_Z10time_sleepm@plt
 126      E7800000 
 127              	.LVL7:
GAS LISTING /tmp/cc2PsAL2.s 			page 5


  63:src/syscall_cpp.cpp ****         this->periodicActivation();
 128              		.loc 2 63 9 is_stmt 1
 129              		.loc 2 63 34 is_stmt 0
 130 0058 83B70400 		ld	a5,0(s1)
 131 005c 83B78701 		ld	a5,24(a5)
 132              		.loc 2 63 33
 133 0060 13850400 		mv	a0,s1
 134 0064 E7800700 		jalr	a5
 135              	.LVL8:
  61:src/syscall_cpp.cpp ****     while(!finished){
 136              		.loc 2 61 5
 137 0068 6FF0DFFD 		j	.L9
 138              	.L7:
  64:src/syscall_cpp.cpp ****     }
  65:src/syscall_cpp.cpp **** }
 139              		.loc 2 65 1
 140 006c 83308101 		ld	ra,24(sp)
 141              		.cfi_restore 1
 142 0070 03340101 		ld	s0,16(sp)
 143              		.cfi_restore 8
 144              		.cfi_def_cfa 2, 32
 145 0074 83348100 		ld	s1,8(sp)
 146              		.cfi_restore 9
 147              	.LVL9:
 148 0078 13010102 		addi	sp,sp,32
 149              		.cfi_def_cfa_offset 0
 150 007c 67800000 		jr	ra
 151              		.cfi_endproc
 152              	.LFE64:
 154              		.align	2
 155              		.globl	_ZN9SemaphoreD2Ev
 157              	_ZN9SemaphoreD2Ev:
 158              	.LFB55:
  43:src/syscall_cpp.cpp ****     sem_close(myHandle);
 159              		.loc 2 43 1 is_stmt 1
 160              		.cfi_startproc
 161              		.cfi_personality 0x9b,DW.ref.__gxx_personality_v0
 162              		.cfi_lsda 0x1b,.LLSDA55
 163              	.LVL10:
 164 0080 130101FF 		addi	sp,sp,-16
 165              		.cfi_def_cfa_offset 16
 166 0084 23341100 		sd	ra,8(sp)
 167 0088 23308100 		sd	s0,0(sp)
 168              		.cfi_offset 1, -8
 169              		.cfi_offset 8, -16
 170 008c 13040101 		addi	s0,sp,16
 171              		.cfi_def_cfa 8, 0
 172              	.LBB5:
  43:src/syscall_cpp.cpp ****     sem_close(myHandle);
 173              		.loc 2 43 23 is_stmt 0
 174 0090 97070000 		lla	a5,_ZTV9Semaphore+16
 174      93870700 
 175 0098 2330F500 		sd	a5,0(a0)
  44:src/syscall_cpp.cpp **** }
 176              		.loc 2 44 5 is_stmt 1
  44:src/syscall_cpp.cpp **** }
 177              		.loc 2 44 14 is_stmt 0
GAS LISTING /tmp/cc2PsAL2.s 			page 6


 178 009c 03358500 		ld	a0,8(a0)
 179              	.LVL11:
 180 00a0 97000000 		call	_Z9sem_closeP9semaphore@plt
 180      E7800000 
 181              	.LVL12:
 182              	.LBE5:
  45:src/syscall_cpp.cpp **** int Semaphore::wait(){
 183              		.loc 2 45 1
 184 00a8 83308100 		ld	ra,8(sp)
 185              		.cfi_restore 1
 186 00ac 03340100 		ld	s0,0(sp)
 187              		.cfi_restore 8
 188              		.cfi_def_cfa 2, 16
 189 00b0 13010101 		addi	sp,sp,16
 190              		.cfi_def_cfa_offset 0
 191 00b4 67800000 		jr	ra
 192              		.cfi_endproc
 193              	.LFE55:
 194              		.globl	__gxx_personality_v0
 195              		.section	.gcc_except_table,"a",@progbits
 196              	.LLSDA55:
 197 0000 FF       		.byte	0xff
 198 0001 FF       		.byte	0xff
 199 0002 03       		.byte	0x3
 200 0003 00       		.byte	0
 201              		.text
 203              		.globl	_ZN9SemaphoreD1Ev
 204              		.set	_ZN9SemaphoreD1Ev,_ZN9SemaphoreD2Ev
 205              		.align	2
 206              		.globl	_Znwm
 208              	_Znwm:
 209              	.LFB34:
   3:src/syscall_cpp.cpp ****     return mem_alloc(n);
 210              		.loc 2 3 29 is_stmt 1
 211              		.cfi_startproc
 212              	.LVL13:
 213 00b8 130101FF 		addi	sp,sp,-16
 214              		.cfi_def_cfa_offset 16
 215 00bc 23341100 		sd	ra,8(sp)
 216 00c0 23308100 		sd	s0,0(sp)
 217              		.cfi_offset 1, -8
 218              		.cfi_offset 8, -16
 219 00c4 13040101 		addi	s0,sp,16
 220              		.cfi_def_cfa 8, 0
   4:src/syscall_cpp.cpp **** }
 221              		.loc 2 4 5
   4:src/syscall_cpp.cpp **** }
 222              		.loc 2 4 21 is_stmt 0
 223 00c8 97000000 		call	_Z9mem_allocm@plt
 223      E7800000 
 224              	.LVL14:
   5:src/syscall_cpp.cpp **** 
 225              		.loc 2 5 1
 226 00d0 83308100 		ld	ra,8(sp)
 227              		.cfi_restore 1
 228 00d4 03340100 		ld	s0,0(sp)
 229              		.cfi_restore 8
GAS LISTING /tmp/cc2PsAL2.s 			page 7


 230              		.cfi_def_cfa 2, 16
 231 00d8 13010101 		addi	sp,sp,16
 232              		.cfi_def_cfa_offset 0
 233 00dc 67800000 		jr	ra
 234              		.cfi_endproc
 235              	.LFE34:
 237              		.align	2
 238              		.globl	_ZdlPv
 240              	_ZdlPv:
 241              	.LFB35:
   7:src/syscall_cpp.cpp ****     mem_free(p);
 242              		.loc 2 7 31 is_stmt 1
 243              		.cfi_startproc
 244              	.LVL15:
 245 00e0 130101FF 		addi	sp,sp,-16
 246              		.cfi_def_cfa_offset 16
 247 00e4 23341100 		sd	ra,8(sp)
 248 00e8 23308100 		sd	s0,0(sp)
 249              		.cfi_offset 1, -8
 250              		.cfi_offset 8, -16
 251 00ec 13040101 		addi	s0,sp,16
 252              		.cfi_def_cfa 8, 0
   8:src/syscall_cpp.cpp **** }
 253              		.loc 2 8 5
   8:src/syscall_cpp.cpp **** }
 254              		.loc 2 8 13 is_stmt 0
 255 00f0 97000000 		call	_Z8mem_freePv@plt
 255      E7800000 
 256              	.LVL16:
   9:src/syscall_cpp.cpp **** 
 257              		.loc 2 9 1
 258 00f8 83308100 		ld	ra,8(sp)
 259              		.cfi_restore 1
 260 00fc 03340100 		ld	s0,0(sp)
 261              		.cfi_restore 8
 262              		.cfi_def_cfa 2, 16
 263 0100 13010101 		addi	sp,sp,16
 264              		.cfi_def_cfa_offset 0
 265 0104 67800000 		jr	ra
 266              		.cfi_endproc
 267              	.LFE35:
 269              		.align	2
 270              		.globl	_ZN6ThreadD2Ev
 272              	_ZN6ThreadD2Ev:
 273              	.LFB40:
  15:src/syscall_cpp.cpp ****     delete myHandle;
 274              		.loc 2 15 1 is_stmt 1
 275              		.cfi_startproc
 276              		.cfi_personality 0x9b,DW.ref.__gxx_personality_v0
 277              		.cfi_lsda 0x1b,.LLSDA40
 278              	.LVL17:
 279              	.LBB6:
  15:src/syscall_cpp.cpp ****     delete myHandle;
 280              		.loc 2 15 17 is_stmt 0
 281 0108 97070000 		lla	a5,_ZTV6Thread+16
 281      93870700 
 282 0110 2330F500 		sd	a5,0(a0)
GAS LISTING /tmp/cc2PsAL2.s 			page 8


  16:src/syscall_cpp.cpp **** }
 283              		.loc 2 16 5 is_stmt 1
  16:src/syscall_cpp.cpp **** }
 284              		.loc 2 16 12 is_stmt 0
 285 0114 03358500 		ld	a0,8(a0)
 286              	.LVL18:
  16:src/syscall_cpp.cpp **** }
 287              		.loc 2 16 20
 288 0118 63060502 		beqz	a0,.L20
 289              	.LBE6:
  15:src/syscall_cpp.cpp ****     delete myHandle;
 290              		.loc 2 15 1 discriminator 1
 291 011c 130101FF 		addi	sp,sp,-16
 292              		.cfi_def_cfa_offset 16
 293 0120 23341100 		sd	ra,8(sp)
 294 0124 23308100 		sd	s0,0(sp)
 295              		.cfi_offset 1, -8
 296              		.cfi_offset 8, -16
 297 0128 13040101 		addi	s0,sp,16
 298              		.cfi_def_cfa 8, 0
 299              	.LBB7:
  16:src/syscall_cpp.cpp **** }
 300              		.loc 2 16 12 discriminator 1
 301 012c 97000000 		call	_ZdlPv
 301      E7800000 
 302              	.LVL19:
 303              	.LBE7:
  17:src/syscall_cpp.cpp **** int Thread::start() {
 304              		.loc 2 17 1 discriminator 1
 305 0134 83308100 		ld	ra,8(sp)
 306              		.cfi_restore 1
 307 0138 03340100 		ld	s0,0(sp)
 308              		.cfi_restore 8
 309              		.cfi_def_cfa 2, 16
 310 013c 13010101 		addi	sp,sp,16
 311              		.cfi_def_cfa_offset 0
 312 0140 67800000 		jr	ra
 313              	.L20:
 314 0144 67800000 		ret
 315              		.cfi_endproc
 316              	.LFE40:
 317              		.section	.gcc_except_table
 318              	.LLSDA40:
 319 0004 FF       		.byte	0xff
 320 0005 FF       		.byte	0xff
 321 0006 03       		.byte	0x3
 322 0007 00       		.byte	0
 323              		.text
 325              		.globl	_ZN6ThreadD1Ev
 326              		.set	_ZN6ThreadD1Ev,_ZN6ThreadD2Ev
 327              		.section	.text._ZN14PeriodicThreadD2Ev,"axG",@progbits,_ZN14PeriodicThreadD5Ev,comdat
 328              		.align	2
 329              		.weak	_ZN14PeriodicThreadD2Ev
 331              	_ZN14PeriodicThreadD2Ev:
 332              	.LFB68:
  40:src/../h/syscall_cpp.hpp **** public:
 333              		.loc 1 40 7 is_stmt 1
GAS LISTING /tmp/cc2PsAL2.s 			page 9


 334              		.cfi_startproc
 335              	.LVL20:
 336 0000 130101FF 		addi	sp,sp,-16
 337              		.cfi_def_cfa_offset 16
 338 0004 23341100 		sd	ra,8(sp)
 339 0008 23308100 		sd	s0,0(sp)
 340              		.cfi_offset 1, -8
 341              		.cfi_offset 8, -16
 342 000c 13040101 		addi	s0,sp,16
 343              		.cfi_def_cfa 8, 0
 344              	.LBB8:
  40:src/../h/syscall_cpp.hpp **** public:
 345              		.loc 1 40 7 is_stmt 0
 346 0010 97070000 		lla	a5,_ZTV14PeriodicThread+16
 346      93870700 
 347 0018 2330F500 		sd	a5,0(a0)
 348 001c 97000000 		call	_ZN6ThreadD2Ev
 348      E7800000 
 349              	.LVL21:
 350              	.LBE8:
 351 0024 83308100 		ld	ra,8(sp)
 352              		.cfi_restore 1
 353 0028 03340100 		ld	s0,0(sp)
 354              		.cfi_restore 8
 355              		.cfi_def_cfa 2, 16
 356 002c 13010101 		addi	sp,sp,16
 357              		.cfi_def_cfa_offset 0
 358 0030 67800000 		jr	ra
 359              		.cfi_endproc
 360              	.LFE68:
 362              		.weak	_ZN14PeriodicThreadD1Ev
 363              		.set	_ZN14PeriodicThreadD1Ev,_ZN14PeriodicThreadD2Ev
 364              		.text
 365              		.align	2
 366              		.globl	_ZN6ThreadD0Ev
 368              	_ZN6ThreadD0Ev:
 369              	.LFB42:
  15:src/syscall_cpp.cpp ****     delete myHandle;
 370              		.loc 2 15 1 is_stmt 1
 371              		.cfi_startproc
 372              	.LVL22:
 373 0148 130101FE 		addi	sp,sp,-32
 374              		.cfi_def_cfa_offset 32
 375 014c 233C1100 		sd	ra,24(sp)
 376 0150 23388100 		sd	s0,16(sp)
 377 0154 23349100 		sd	s1,8(sp)
 378              		.cfi_offset 1, -8
 379              		.cfi_offset 8, -16
 380              		.cfi_offset 9, -24
 381 0158 13040102 		addi	s0,sp,32
 382              		.cfi_def_cfa 8, 0
 383 015c 93040500 		mv	s1,a0
  17:src/syscall_cpp.cpp **** int Thread::start() {
 384              		.loc 2 17 1 is_stmt 0
 385 0160 97000000 		call	_ZN6ThreadD1Ev
 385      E7800000 
 386              	.LVL23:
GAS LISTING /tmp/cc2PsAL2.s 			page 10


 387 0168 13850400 		mv	a0,s1
 388 016c 97000000 		call	_ZdlPv
 388      E7800000 
 389              	.LVL24:
 390 0174 83308101 		ld	ra,24(sp)
 391              		.cfi_restore 1
 392 0178 03340101 		ld	s0,16(sp)
 393              		.cfi_restore 8
 394              		.cfi_def_cfa 2, 32
 395 017c 83348100 		ld	s1,8(sp)
 396              		.cfi_restore 9
 397              	.LVL25:
 398 0180 13010102 		addi	sp,sp,32
 399              		.cfi_def_cfa_offset 0
 400 0184 67800000 		jr	ra
 401              		.cfi_endproc
 402              	.LFE42:
 404              		.align	2
 405              		.globl	_ZN9SemaphoreD0Ev
 407              	_ZN9SemaphoreD0Ev:
 408              	.LFB57:
  43:src/syscall_cpp.cpp ****     sem_close(myHandle);
 409              		.loc 2 43 1 is_stmt 1
 410              		.cfi_startproc
 411              	.LVL26:
 412 0188 130101FE 		addi	sp,sp,-32
 413              		.cfi_def_cfa_offset 32
 414 018c 233C1100 		sd	ra,24(sp)
 415 0190 23388100 		sd	s0,16(sp)
 416 0194 23349100 		sd	s1,8(sp)
 417              		.cfi_offset 1, -8
 418              		.cfi_offset 8, -16
 419              		.cfi_offset 9, -24
 420 0198 13040102 		addi	s0,sp,32
 421              		.cfi_def_cfa 8, 0
 422 019c 93040500 		mv	s1,a0
  45:src/syscall_cpp.cpp **** int Semaphore::wait(){
 423              		.loc 2 45 1 is_stmt 0
 424 01a0 97000000 		call	_ZN9SemaphoreD1Ev
 424      E7800000 
 425              	.LVL27:
 426 01a8 13850400 		mv	a0,s1
 427 01ac 97000000 		call	_ZdlPv
 427      E7800000 
 428              	.LVL28:
 429 01b4 83308101 		ld	ra,24(sp)
 430              		.cfi_restore 1
 431 01b8 03340101 		ld	s0,16(sp)
 432              		.cfi_restore 8
 433              		.cfi_def_cfa 2, 32
 434 01bc 83348100 		ld	s1,8(sp)
 435              		.cfi_restore 9
 436              	.LVL29:
 437 01c0 13010102 		addi	sp,sp,32
 438              		.cfi_def_cfa_offset 0
 439 01c4 67800000 		jr	ra
 440              		.cfi_endproc
GAS LISTING /tmp/cc2PsAL2.s 			page 11


 441              	.LFE57:
 443              		.section	.text._ZN14PeriodicThreadD0Ev,"axG",@progbits,_ZN14PeriodicThreadD5Ev,comdat
 444              		.align	2
 445              		.weak	_ZN14PeriodicThreadD0Ev
 447              	_ZN14PeriodicThreadD0Ev:
 448              	.LFB70:
  40:src/../h/syscall_cpp.hpp **** public:
 449              		.loc 1 40 7 is_stmt 1
 450              		.cfi_startproc
 451              	.LVL30:
 452 0000 130101FE 		addi	sp,sp,-32
 453              		.cfi_def_cfa_offset 32
 454 0004 233C1100 		sd	ra,24(sp)
 455 0008 23388100 		sd	s0,16(sp)
 456 000c 23349100 		sd	s1,8(sp)
 457              		.cfi_offset 1, -8
 458              		.cfi_offset 8, -16
 459              		.cfi_offset 9, -24
 460 0010 13040102 		addi	s0,sp,32
 461              		.cfi_def_cfa 8, 0
 462 0014 93040500 		mv	s1,a0
 463              	.LVL31:
 464              	.LBB9:
 465              	.LBB10:
  40:src/../h/syscall_cpp.hpp **** public:
 466              		.loc 1 40 7 is_stmt 0
 467 0018 97070000 		lla	a5,_ZTV14PeriodicThread+16
 467      93870700 
 468 0020 2330F500 		sd	a5,0(a0)
 469 0024 97000000 		call	_ZN6ThreadD2Ev
 469      E7800000 
 470              	.LVL32:
 471              	.LBE10:
 472              	.LBE9:
 473 002c 13850400 		mv	a0,s1
 474 0030 97000000 		call	_ZdlPv
 474      E7800000 
 475              	.LVL33:
 476 0038 83308101 		ld	ra,24(sp)
 477              		.cfi_restore 1
 478 003c 03340101 		ld	s0,16(sp)
 479              		.cfi_restore 8
 480              		.cfi_def_cfa 2, 32
 481 0040 83348100 		ld	s1,8(sp)
 482              		.cfi_restore 9
 483              	.LVL34:
 484 0044 13010102 		addi	sp,sp,32
 485              		.cfi_def_cfa_offset 0
 486 0048 67800000 		jr	ra
 487              		.cfi_endproc
 488              	.LFE70:
 490              		.text
 491              		.align	2
 492              		.globl	_ZN6ThreadC2EPFvPvES0_
 494              	_ZN6ThreadC2EPFvPvES0_:
 495              	.LFB37:
  12:src/syscall_cpp.cpp ****     thread_create(&myHandle, body, arg);
GAS LISTING /tmp/cc2PsAL2.s 			page 12


 496              		.loc 2 12 1 is_stmt 1
 497              		.cfi_startproc
 498              	.LVL35:
 499 01c8 130101FF 		addi	sp,sp,-16
 500              		.cfi_def_cfa_offset 16
 501 01cc 23341100 		sd	ra,8(sp)
 502 01d0 23308100 		sd	s0,0(sp)
 503              		.cfi_offset 1, -8
 504              		.cfi_offset 8, -16
 505 01d4 13040101 		addi	s0,sp,16
 506              		.cfi_def_cfa 8, 0
 507              	.LBB11:
  12:src/syscall_cpp.cpp ****     thread_create(&myHandle, body, arg);
 508              		.loc 2 12 47 is_stmt 0
 509 01d8 97070000 		lla	a5,_ZTV6Thread+16
 509      93870700 
 510 01e0 2330F500 		sd	a5,0(a0)
  13:src/syscall_cpp.cpp **** }
 511              		.loc 2 13 5 is_stmt 1
  13:src/syscall_cpp.cpp **** }
 512              		.loc 2 13 18 is_stmt 0
 513 01e4 13058500 		addi	a0,a0,8
 514              	.LVL36:
 515 01e8 97000000 		call	_Z13thread_createPP3TCBPFvPvES2_@plt
 515      E7800000 
 516              	.LVL37:
 517              	.LBE11:
  14:src/syscall_cpp.cpp **** Thread::~Thread(){
 518              		.loc 2 14 1
 519 01f0 83308100 		ld	ra,8(sp)
 520              		.cfi_restore 1
 521 01f4 03340100 		ld	s0,0(sp)
 522              		.cfi_restore 8
 523              		.cfi_def_cfa 2, 16
 524 01f8 13010101 		addi	sp,sp,16
 525              		.cfi_def_cfa_offset 0
 526 01fc 67800000 		jr	ra
 527              		.cfi_endproc
 528              	.LFE37:
 530              		.globl	_ZN6ThreadC1EPFvPvES0_
 531              		.set	_ZN6ThreadC1EPFvPvES0_,_ZN6ThreadC2EPFvPvES0_
 532              		.align	2
 533              		.globl	_ZN6Thread5startEv
 535              	_ZN6Thread5startEv:
 536              	.LFB43:
  18:src/syscall_cpp.cpp ****     Scheduler::instanceOfScheduler().put(myHandle);
 537              		.loc 2 18 21 is_stmt 1
 538              		.cfi_startproc
 539              	.LVL38:
 540 0200 130101FE 		addi	sp,sp,-32
 541              		.cfi_def_cfa_offset 32
 542 0204 233C1100 		sd	ra,24(sp)
 543 0208 23388100 		sd	s0,16(sp)
 544 020c 23349100 		sd	s1,8(sp)
 545              		.cfi_offset 1, -8
 546              		.cfi_offset 8, -16
 547              		.cfi_offset 9, -24
GAS LISTING /tmp/cc2PsAL2.s 			page 13


 548 0210 13040102 		addi	s0,sp,32
 549              		.cfi_def_cfa 8, 0
 550 0214 93040500 		mv	s1,a0
  19:src/syscall_cpp.cpp ****     return 0;
 551              		.loc 2 19 5
  19:src/syscall_cpp.cpp ****     return 0;
 552              		.loc 2 19 36 is_stmt 0
 553 0218 97000000 		call	_ZN9Scheduler19instanceOfSchedulerEv@plt
 553      E7800000 
 554              	.LVL39:
  19:src/syscall_cpp.cpp ****     return 0;
 555              		.loc 2 19 41
 556 0220 83B58400 		ld	a1,8(s1)
 557 0224 97000000 		call	_ZN9Scheduler3putEP3TCB@plt
 557      E7800000 
 558              	.LVL40:
  20:src/syscall_cpp.cpp **** }
 559              		.loc 2 20 5 is_stmt 1
  21:src/syscall_cpp.cpp **** void Thread::join() {
 560              		.loc 2 21 1 is_stmt 0
 561 022c 13050000 		li	a0,0
 562 0230 83308101 		ld	ra,24(sp)
 563              		.cfi_restore 1
 564 0234 03340101 		ld	s0,16(sp)
 565              		.cfi_restore 8
 566              		.cfi_def_cfa 2, 32
 567 0238 83348100 		ld	s1,8(sp)
 568              		.cfi_restore 9
 569              	.LVL41:
 570 023c 13010102 		addi	sp,sp,32
 571              		.cfi_def_cfa_offset 0
 572 0240 67800000 		jr	ra
 573              		.cfi_endproc
 574              	.LFE43:
 576              		.align	2
 577              		.globl	_ZN6Thread4joinEv
 579              	_ZN6Thread4joinEv:
 580              	.LFB44:
  22:src/syscall_cpp.cpp ****     thread_join(myHandle);
 581              		.loc 2 22 21 is_stmt 1
 582              		.cfi_startproc
 583              	.LVL42:
 584 0244 130101FF 		addi	sp,sp,-16
 585              		.cfi_def_cfa_offset 16
 586 0248 23341100 		sd	ra,8(sp)
 587 024c 23308100 		sd	s0,0(sp)
 588              		.cfi_offset 1, -8
 589              		.cfi_offset 8, -16
 590 0250 13040101 		addi	s0,sp,16
 591              		.cfi_def_cfa 8, 0
  23:src/syscall_cpp.cpp **** }
 592              		.loc 2 23 5
  23:src/syscall_cpp.cpp **** }
 593              		.loc 2 23 16 is_stmt 0
 594 0254 03358500 		ld	a0,8(a0)
 595              	.LVL43:
 596 0258 97000000 		call	_Z11thread_joinP3TCB@plt
GAS LISTING /tmp/cc2PsAL2.s 			page 14


 596      E7800000 
 597              	.LVL44:
  24:src/syscall_cpp.cpp **** void Thread::dispatch() {
 598              		.loc 2 24 1
 599 0260 83308100 		ld	ra,8(sp)
 600              		.cfi_restore 1
 601 0264 03340100 		ld	s0,0(sp)
 602              		.cfi_restore 8
 603              		.cfi_def_cfa 2, 16
 604 0268 13010101 		addi	sp,sp,16
 605              		.cfi_def_cfa_offset 0
 606 026c 67800000 		jr	ra
 607              		.cfi_endproc
 608              	.LFE44:
 610              		.align	2
 611              		.globl	_ZN6Thread8dispatchEv
 613              	_ZN6Thread8dispatchEv:
 614              	.LFB45:
  25:src/syscall_cpp.cpp ****     thread_dispatch();
 615              		.loc 2 25 25 is_stmt 1
 616              		.cfi_startproc
 617 0270 130101FF 		addi	sp,sp,-16
 618              		.cfi_def_cfa_offset 16
 619 0274 23341100 		sd	ra,8(sp)
 620 0278 23308100 		sd	s0,0(sp)
 621              		.cfi_offset 1, -8
 622              		.cfi_offset 8, -16
 623 027c 13040101 		addi	s0,sp,16
 624              		.cfi_def_cfa 8, 0
  26:src/syscall_cpp.cpp **** }
 625              		.loc 2 26 5
  26:src/syscall_cpp.cpp **** }
 626              		.loc 2 26 20 is_stmt 0
 627 0280 97000000 		call	_Z15thread_dispatchv@plt
 627      E7800000 
 628              	.LVL45:
  27:src/syscall_cpp.cpp **** int Thread::sleep(time_t time) {
 629              		.loc 2 27 1
 630 0288 83308100 		ld	ra,8(sp)
 631              		.cfi_restore 1
 632 028c 03340100 		ld	s0,0(sp)
 633              		.cfi_restore 8
 634              		.cfi_def_cfa 2, 16
 635 0290 13010101 		addi	sp,sp,16
 636              		.cfi_def_cfa_offset 0
 637 0294 67800000 		jr	ra
 638              		.cfi_endproc
 639              	.LFE45:
 641              		.align	2
 642              		.globl	_ZN6Thread5sleepEm
 644              	_ZN6Thread5sleepEm:
 645              	.LFB46:
  28:src/syscall_cpp.cpp ****     return time_sleep(time);
 646              		.loc 2 28 32 is_stmt 1
 647              		.cfi_startproc
 648              	.LVL46:
 649 0298 130101FF 		addi	sp,sp,-16
GAS LISTING /tmp/cc2PsAL2.s 			page 15


 650              		.cfi_def_cfa_offset 16
 651 029c 23341100 		sd	ra,8(sp)
 652 02a0 23308100 		sd	s0,0(sp)
 653              		.cfi_offset 1, -8
 654              		.cfi_offset 8, -16
 655 02a4 13040101 		addi	s0,sp,16
 656              		.cfi_def_cfa 8, 0
  29:src/syscall_cpp.cpp **** }
 657              		.loc 2 29 5
  29:src/syscall_cpp.cpp **** }
 658              		.loc 2 29 22 is_stmt 0
 659 02a8 97000000 		call	_Z10time_sleepm@plt
 659      E7800000 
 660              	.LVL47:
  30:src/syscall_cpp.cpp **** void Thread::wrapper(void * thread) {
 661              		.loc 2 30 1
 662 02b0 83308100 		ld	ra,8(sp)
 663              		.cfi_restore 1
 664 02b4 03340100 		ld	s0,0(sp)
 665              		.cfi_restore 8
 666              		.cfi_def_cfa 2, 16
 667 02b8 13010101 		addi	sp,sp,16
 668              		.cfi_def_cfa_offset 0
 669 02bc 67800000 		jr	ra
 670              		.cfi_endproc
 671              	.LFE46:
 673              		.align	2
 674              		.globl	_ZN6ThreadC2Ev
 676              	_ZN6ThreadC2Ev:
 677              	.LFB49:
  35:src/syscall_cpp.cpp ****     thread_create_no(&myHandle, wrapper, this);
 678              		.loc 2 35 1 is_stmt 1
 679              		.cfi_startproc
 680              	.LVL48:
 681 02c0 130101FF 		addi	sp,sp,-16
 682              		.cfi_def_cfa_offset 16
 683 02c4 23341100 		sd	ra,8(sp)
 684 02c8 23308100 		sd	s0,0(sp)
 685              		.cfi_offset 1, -8
 686              		.cfi_offset 8, -16
 687 02cc 13040101 		addi	s0,sp,16
 688              		.cfi_def_cfa 8, 0
 689              	.LBB12:
  35:src/syscall_cpp.cpp ****     thread_create_no(&myHandle, wrapper, this);
 690              		.loc 2 35 16 is_stmt 0
 691 02d0 97070000 		lla	a5,_ZTV6Thread+16
 691      93870700 
 692 02d8 2330F500 		sd	a5,0(a0)
  36:src/syscall_cpp.cpp **** }
 693              		.loc 2 36 5 is_stmt 1
  36:src/syscall_cpp.cpp **** }
 694              		.loc 2 36 21 is_stmt 0
 695 02dc 13060500 		mv	a2,a0
 696 02e0 97050000 		lla	a1,_ZN6Thread7wrapperEPv
 696      93850500 
 697 02e8 13058500 		addi	a0,a0,8
 698              	.LVL49:
GAS LISTING /tmp/cc2PsAL2.s 			page 16


 699 02ec 97000000 		call	_Z16thread_create_noPP3TCBPFvPvES2_@plt
 699      E7800000 
 700              	.LVL50:
 701              	.LBE12:
  37:src/syscall_cpp.cpp **** 
 702              		.loc 2 37 1
 703 02f4 83308100 		ld	ra,8(sp)
 704              		.cfi_restore 1
 705 02f8 03340100 		ld	s0,0(sp)
 706              		.cfi_restore 8
 707              		.cfi_def_cfa 2, 16
 708 02fc 13010101 		addi	sp,sp,16
 709              		.cfi_def_cfa_offset 0
 710 0300 67800000 		jr	ra
 711              		.cfi_endproc
 712              	.LFE49:
 714              		.globl	_ZN6ThreadC1Ev
 715              		.set	_ZN6ThreadC1Ev,_ZN6ThreadC2Ev
 716              		.align	2
 717              		.globl	_ZN9SemaphoreC2Ej
 719              	_ZN9SemaphoreC2Ej:
 720              	.LFB52:
  40:src/syscall_cpp.cpp ****     sem_open(&myHandle, init);
 721              		.loc 2 40 1 is_stmt 1
 722              		.cfi_startproc
 723              	.LVL51:
 724 0304 130101FF 		addi	sp,sp,-16
 725              		.cfi_def_cfa_offset 16
 726 0308 23341100 		sd	ra,8(sp)
 727 030c 23308100 		sd	s0,0(sp)
 728              		.cfi_offset 1, -8
 729              		.cfi_offset 8, -16
 730 0310 13040101 		addi	s0,sp,16
 731              		.cfi_def_cfa 8, 0
 732              	.LBB13:
  40:src/syscall_cpp.cpp ****     sem_open(&myHandle, init);
 733              		.loc 2 40 39 is_stmt 0
 734 0314 97070000 		lla	a5,_ZTV9Semaphore+16
 734      93870700 
 735 031c 2330F500 		sd	a5,0(a0)
  41:src/syscall_cpp.cpp **** }
 736              		.loc 2 41 5 is_stmt 1
  41:src/syscall_cpp.cpp **** }
 737              		.loc 2 41 13 is_stmt 0
 738 0320 13058500 		addi	a0,a0,8
 739              	.LVL52:
 740 0324 97000000 		call	_Z8sem_openPP9semaphorej@plt
 740      E7800000 
 741              	.LVL53:
 742              	.LBE13:
  42:src/syscall_cpp.cpp **** Semaphore::~Semaphore(){
 743              		.loc 2 42 1
 744 032c 83308100 		ld	ra,8(sp)
 745              		.cfi_restore 1
 746 0330 03340100 		ld	s0,0(sp)
 747              		.cfi_restore 8
 748              		.cfi_def_cfa 2, 16
GAS LISTING /tmp/cc2PsAL2.s 			page 17


 749 0334 13010101 		addi	sp,sp,16
 750              		.cfi_def_cfa_offset 0
 751 0338 67800000 		jr	ra
 752              		.cfi_endproc
 753              	.LFE52:
 755              		.globl	_ZN9SemaphoreC1Ej
 756              		.set	_ZN9SemaphoreC1Ej,_ZN9SemaphoreC2Ej
 757              		.align	2
 758              		.globl	_ZN9Semaphore4waitEv
 760              	_ZN9Semaphore4waitEv:
 761              	.LFB58:
  46:src/syscall_cpp.cpp ****     return sem_wait(myHandle);
 762              		.loc 2 46 22 is_stmt 1
 763              		.cfi_startproc
 764              	.LVL54:
 765 033c 130101FF 		addi	sp,sp,-16
 766              		.cfi_def_cfa_offset 16
 767 0340 23341100 		sd	ra,8(sp)
 768 0344 23308100 		sd	s0,0(sp)
 769              		.cfi_offset 1, -8
 770              		.cfi_offset 8, -16
 771 0348 13040101 		addi	s0,sp,16
 772              		.cfi_def_cfa 8, 0
  47:src/syscall_cpp.cpp **** }
 773              		.loc 2 47 5
  47:src/syscall_cpp.cpp **** }
 774              		.loc 2 47 20 is_stmt 0
 775 034c 03358500 		ld	a0,8(a0)
 776              	.LVL55:
 777 0350 97000000 		call	_Z8sem_waitP9semaphore@plt
 777      E7800000 
 778              	.LVL56:
  48:src/syscall_cpp.cpp **** int Semaphore::signal(){
 779              		.loc 2 48 1
 780 0358 83308100 		ld	ra,8(sp)
 781              		.cfi_restore 1
 782 035c 03340100 		ld	s0,0(sp)
 783              		.cfi_restore 8
 784              		.cfi_def_cfa 2, 16
 785 0360 13010101 		addi	sp,sp,16
 786              		.cfi_def_cfa_offset 0
 787 0364 67800000 		jr	ra
 788              		.cfi_endproc
 789              	.LFE58:
 791              		.align	2
 792              		.globl	_ZN9Semaphore6signalEv
 794              	_ZN9Semaphore6signalEv:
 795              	.LFB59:
  49:src/syscall_cpp.cpp ****     return sem_signal(myHandle);
 796              		.loc 2 49 24 is_stmt 1
 797              		.cfi_startproc
 798              	.LVL57:
 799 0368 130101FF 		addi	sp,sp,-16
 800              		.cfi_def_cfa_offset 16
 801 036c 23341100 		sd	ra,8(sp)
 802 0370 23308100 		sd	s0,0(sp)
 803              		.cfi_offset 1, -8
GAS LISTING /tmp/cc2PsAL2.s 			page 18


 804              		.cfi_offset 8, -16
 805 0374 13040101 		addi	s0,sp,16
 806              		.cfi_def_cfa 8, 0
  50:src/syscall_cpp.cpp **** }
 807              		.loc 2 50 5
  50:src/syscall_cpp.cpp **** }
 808              		.loc 2 50 22 is_stmt 0
 809 0378 03358500 		ld	a0,8(a0)
 810              	.LVL58:
 811 037c 97000000 		call	_Z10sem_signalP9semaphore@plt
 811      E7800000 
 812              	.LVL59:
  51:src/syscall_cpp.cpp **** 
 813              		.loc 2 51 1
 814 0384 83308100 		ld	ra,8(sp)
 815              		.cfi_restore 1
 816 0388 03340100 		ld	s0,0(sp)
 817              		.cfi_restore 8
 818              		.cfi_def_cfa 2, 16
 819 038c 13010101 		addi	sp,sp,16
 820              		.cfi_def_cfa_offset 0
 821 0390 67800000 		jr	ra
 822              		.cfi_endproc
 823              	.LFE59:
 825              		.align	2
 826              		.globl	_ZN14PeriodicThreadC2Em
 828              	_ZN14PeriodicThreadC2Em:
 829              	.LFB61:
  54:src/syscall_cpp.cpp ****     this->period = period;
 830              		.loc 2 54 1 is_stmt 1
 831              		.cfi_startproc
 832              	.LVL60:
 833 0394 130101FE 		addi	sp,sp,-32
 834              		.cfi_def_cfa_offset 32
 835 0398 233C1100 		sd	ra,24(sp)
 836 039c 23388100 		sd	s0,16(sp)
 837 03a0 23349100 		sd	s1,8(sp)
 838 03a4 23302101 		sd	s2,0(sp)
 839              		.cfi_offset 1, -8
 840              		.cfi_offset 8, -16
 841              		.cfi_offset 9, -24
 842              		.cfi_offset 18, -32
 843 03a8 13040102 		addi	s0,sp,32
 844              		.cfi_def_cfa 8, 0
 845 03ac 93040500 		mv	s1,a0
 846 03b0 13890500 		mv	s2,a1
 847              	.LBB14:
  54:src/syscall_cpp.cpp ****     this->period = period;
 848              		.loc 2 54 45 is_stmt 0
 849 03b4 97000000 		call	_ZN6ThreadC2Ev
 849      E7800000 
 850              	.LVL61:
 851 03bc 97070000 		lla	a5,_ZTV14PeriodicThread+16
 851      93870700 
 852 03c4 23B0F400 		sd	a5,0(s1)
 853 03c8 23A40402 		sw	zero,40(s1)
  55:src/syscall_cpp.cpp **** }
GAS LISTING /tmp/cc2PsAL2.s 			page 19


 854              		.loc 2 55 5 is_stmt 1
  55:src/syscall_cpp.cpp **** }
 855              		.loc 2 55 18 is_stmt 0
 856 03cc 23B02403 		sd	s2,32(s1)
 857              	.LBE14:
  56:src/syscall_cpp.cpp **** void PeriodicThread::terminate() {
 858              		.loc 2 56 1
 859 03d0 83308101 		ld	ra,24(sp)
 860              		.cfi_restore 1
 861 03d4 03340101 		ld	s0,16(sp)
 862              		.cfi_restore 8
 863              		.cfi_def_cfa 2, 32
 864 03d8 83348100 		ld	s1,8(sp)
 865              		.cfi_restore 9
 866              	.LVL62:
 867 03dc 03390100 		ld	s2,0(sp)
 868              		.cfi_restore 18
 869              	.LVL63:
 870 03e0 13010102 		addi	sp,sp,32
 871              		.cfi_def_cfa_offset 0
 872 03e4 67800000 		jr	ra
 873              		.cfi_endproc
 874              	.LFE61:
 876              		.globl	_ZN14PeriodicThreadC1Em
 877              		.set	_ZN14PeriodicThreadC1Em,_ZN14PeriodicThreadC2Em
 878              		.align	2
 879              		.globl	_ZN14PeriodicThread9terminateEv
 881              	_ZN14PeriodicThread9terminateEv:
 882              	.LFB63:
  57:src/syscall_cpp.cpp ****     finished = 1;
 883              		.loc 2 57 34 is_stmt 1
 884              		.cfi_startproc
 885              	.LVL64:
 886 03e8 130101FF 		addi	sp,sp,-16
 887              		.cfi_def_cfa_offset 16
 888 03ec 23348100 		sd	s0,8(sp)
 889              		.cfi_offset 8, -8
 890 03f0 13040101 		addi	s0,sp,16
 891              		.cfi_def_cfa 8, 0
  58:src/syscall_cpp.cpp **** }
 892              		.loc 2 58 5
  58:src/syscall_cpp.cpp **** }
 893              		.loc 2 58 14 is_stmt 0
 894 03f4 93071000 		li	a5,1
 895 03f8 2324F502 		sw	a5,40(a0)
  59:src/syscall_cpp.cpp **** void PeriodicThread::run() {
 896              		.loc 2 59 1
 897 03fc 03348100 		ld	s0,8(sp)
 898              		.cfi_restore 8
 899              		.cfi_def_cfa 2, 16
 900 0400 13010101 		addi	sp,sp,16
 901              		.cfi_def_cfa_offset 0
 902 0404 67800000 		jr	ra
 903              		.cfi_endproc
 904              	.LFE63:
 906              		.align	2
 907              		.globl	_ZN7Console4getcEv
GAS LISTING /tmp/cc2PsAL2.s 			page 20


 909              	_ZN7Console4getcEv:
 910              	.LFB65:
  66:src/syscall_cpp.cpp **** 
  67:src/syscall_cpp.cpp **** //Console
  68:src/syscall_cpp.cpp **** char Console::getc() {
 911              		.loc 2 68 22 is_stmt 1
 912              		.cfi_startproc
 913 0408 130101FF 		addi	sp,sp,-16
 914              		.cfi_def_cfa_offset 16
 915 040c 23341100 		sd	ra,8(sp)
 916 0410 23308100 		sd	s0,0(sp)
 917              		.cfi_offset 1, -8
 918              		.cfi_offset 8, -16
 919 0414 13040101 		addi	s0,sp,16
 920              		.cfi_def_cfa 8, 0
  69:src/syscall_cpp.cpp ****     return ::getc();
 921              		.loc 2 69 5
 922              		.loc 2 69 18 is_stmt 0
 923 0418 97000000 		call	_Z4getcv@plt
 923      E7800000 
 924              	.LVL65:
  70:src/syscall_cpp.cpp **** }
 925              		.loc 2 70 1
 926 0420 83308100 		ld	ra,8(sp)
 927              		.cfi_restore 1
 928 0424 03340100 		ld	s0,0(sp)
 929              		.cfi_restore 8
 930              		.cfi_def_cfa 2, 16
 931 0428 13010101 		addi	sp,sp,16
 932              		.cfi_def_cfa_offset 0
 933 042c 67800000 		jr	ra
 934              		.cfi_endproc
 935              	.LFE65:
 937              		.align	2
 938              		.globl	_ZN7Console4putcEc
 940              	_ZN7Console4putcEc:
 941              	.LFB66:
  71:src/syscall_cpp.cpp **** void Console::putc(char c) {
 942              		.loc 2 71 28 is_stmt 1
 943              		.cfi_startproc
 944              	.LVL66:
 945 0430 130101FF 		addi	sp,sp,-16
 946              		.cfi_def_cfa_offset 16
 947 0434 23341100 		sd	ra,8(sp)
 948 0438 23308100 		sd	s0,0(sp)
 949              		.cfi_offset 1, -8
 950              		.cfi_offset 8, -16
 951 043c 13040101 		addi	s0,sp,16
 952              		.cfi_def_cfa 8, 0
  72:src/syscall_cpp.cpp ****     ::putc(c);
 953              		.loc 2 72 5
 954              		.loc 2 72 11 is_stmt 0
 955 0440 97000000 		call	_Z4putcc@plt
 955      E7800000 
 956              	.LVL67:
  73:src/syscall_cpp.cpp **** }...
 957              		.loc 2 73 1
GAS LISTING /tmp/cc2PsAL2.s 			page 21


 958 0448 83308100 		ld	ra,8(sp)
 959              		.cfi_restore 1
 960 044c 03340100 		ld	s0,0(sp)
 961              		.cfi_restore 8
 962              		.cfi_def_cfa 2, 16
 963 0450 13010101 		addi	sp,sp,16
 964              		.cfi_def_cfa_offset 0
 965 0454 67800000 		jr	ra
 966              		.cfi_endproc
 967              	.LFE66:
 969              		.weak	_ZTV6Thread
 970              		.section	.data.rel.ro.local._ZTV6Thread,"awG",@progbits,_ZTV6Thread,comdat
 971              		.align	3
 974              	_ZTV6Thread:
 975 0000 00000000 		.dword	0
 975      00000000 
 976 0008 00000000 		.dword	0
 976      00000000 
 977 0010 00000000 		.dword	_ZN6ThreadD1Ev
 977      00000000 
 978 0018 00000000 		.dword	_ZN6ThreadD0Ev
 978      00000000 
 979 0020 00000000 		.dword	_ZN6Thread3runEv
 979      00000000 
 980              		.weak	_ZTV9Semaphore
 981              		.section	.data.rel.ro.local._ZTV9Semaphore,"awG",@progbits,_ZTV9Semaphore,comdat
 982              		.align	3
 985              	_ZTV9Semaphore:
 986 0000 00000000 		.dword	0
 986      00000000 
 987 0008 00000000 		.dword	0
 987      00000000 
 988 0010 00000000 		.dword	_ZN9SemaphoreD1Ev
 988      00000000 
 989 0018 00000000 		.dword	_ZN9SemaphoreD0Ev
 989      00000000 
 990              		.weak	_ZTV14PeriodicThread
 991              		.section	.data.rel.ro.local._ZTV14PeriodicThread,"awG",@progbits,_ZTV14PeriodicThread,comdat
 992              		.align	3
 995              	_ZTV14PeriodicThread:
 996 0000 00000000 		.dword	0
 996      00000000 
 997 0008 00000000 		.dword	0
 997      00000000 
 998 0010 00000000 		.dword	_ZN14PeriodicThreadD1Ev
 998      00000000 
 999 0018 00000000 		.dword	_ZN14PeriodicThreadD0Ev
 999      00000000 
 1000 0020 00000000 		.dword	_ZN14PeriodicThread3runEv
 1000      00000000 
 1001 0028 00000000 		.dword	_ZN14PeriodicThread18periodicActivationEv
 1001      00000000 
 1002              		.text
 1003              	.Letext0:
 1004              		.file 3 "src/../h/../h/../h/../lib/hw.h"
 1005              		.file 4 "src/../h/../h/../h/../h/Scheduler.hpp"
 1006              		.file 5 "src/../h/../h/../h/tcb.hpp"
GAS LISTING /tmp/cc2PsAL2.s 			page 22


 1007              		.file 6 "src/../h/../h/../h/../h/../h/semaphore.hpp"
 1008              		.file 7 "src/../h/../h/syscall_c.h"
 5054              		.align	3
 5057              	DW.ref.__gxx_personality_v0:
 5058 0000 00000000 		.dword	__gxx_personality_v0
 5058      00000000 
 5059              		.ident	"GCC: (Ubuntu 9.4.0-1ubuntu1~20.04) 9.4.0"
 5060              		.section	.note.GNU-stack,"",@progbits
GAS LISTING /tmp/cc2PsAL2.s 			page 23

