GAS LISTING /tmp/ccgzMixE.s 			page 1


   1              		.file	"tcb.cpp"
   2              		.option pic
   3              		.option norelax
   4              		.text
   5              	.Ltext0:
   6              		.align	2
   7              		.globl	_ZN3TCB13threadWrapperEv
   9              	_ZN3TCB13threadWrapperEv:
  10              	.LFB33:
  11              		.file 1 "src/tcb.cpp"
   1:src/tcb.cpp   **** #include "../h/tcb.hpp"
   2:src/tcb.cpp   **** 
   3:src/tcb.cpp   **** TCB* TCB::running = nullptr;
   4:src/tcb.cpp   **** Sleep* TCB::sleepHead = nullptr;
   5:src/tcb.cpp   **** uint64 TCB::timeSliceCounter = 0;
   6:src/tcb.cpp   **** 
   7:src/tcb.cpp   **** TCB *TCB::createThread(Body body, void *arg, char* stack_space) {
   8:src/tcb.cpp   ****     TCB* newTCB = (TCB*) MemoryAllocator::instance().mem_alloc((sizeof(TCB) + MEM_BLOCK_SIZE - 1) /
   9:src/tcb.cpp   ****     newTCB->arg =arg;
  10:src/tcb.cpp   ****     newTCB->body = body;
  11:src/tcb.cpp   ****     newTCB->finished = false;
  12:src/tcb.cpp   ****     newTCB->blocked = false;
  13:src/tcb.cpp   ****     //newTCB->suspended = false;
  14:src/tcb.cpp   ****     //newTCB->asleep = false;
  15:src/tcb.cpp   ****     newTCB->headSuspend = nullptr;
  16:src/tcb.cpp   ****     newTCB->timeSlice = DEFAULT_TIME_SLICE;
  17:src/tcb.cpp   ****     newTCB->userStack = (body != nullptr ? (uint64)&(stack_space[8*DEFAULT_STACK_SIZE]) : 0);
  18:src/tcb.cpp   ****     newTCB->contex.ra = (uint64) &threadWrapper;
  19:src/tcb.cpp   ****     newTCB->contex.sp = newTCB->userStack;
  20:src/tcb.cpp   ****     return newTCB;
  21:src/tcb.cpp   **** }
  22:src/tcb.cpp   **** 
  23:src/tcb.cpp   **** void TCB::threadWrapper() {
  12              		.loc 1 23 27
  13              		.cfi_startproc
  14 0000 130101FE 		addi	sp,sp,-32
  15              		.cfi_def_cfa_offset 32
  16 0004 233C1100 		sd	ra,24(sp)
  17 0008 23388100 		sd	s0,16(sp)
  18 000c 23349100 		sd	s1,8(sp)
  19 0010 23302101 		sd	s2,0(sp)
  20              		.cfi_offset 1, -8
  21              		.cfi_offset 8, -16
  22              		.cfi_offset 9, -24
  23              		.cfi_offset 18, -32
  24 0014 13040102 		addi	s0,sp,32
  25              		.cfi_def_cfa 8, 0
  24:src/tcb.cpp   ****     Riscv::popSppSpie();
  26              		.loc 1 24 5
  27              		.loc 1 24 22 is_stmt 0
  28 0018 97000000 		call	_ZN5Riscv10popSppSpieEv@plt
  28      E7800000 
  29              	.LVL0:
  25:src/tcb.cpp   ****     running->body(running->arg);
  30              		.loc 1 25 5 is_stmt 1
  31              		.loc 1 25 14 is_stmt 0
  32 0020 97040000 		lla	s1,.LANCHOR0
GAS LISTING /tmp/ccgzMixE.s 			page 2


  32      93840400 
  33 0028 83B70400 		ld	a5,0(s1)
  34 002c 03B70700 		ld	a4,0(a5)
  35              		.loc 1 25 18
  36 0030 03B50701 		ld	a0,16(a5)
  37 0034 E7000700 		jalr	a4
  38              	.LVL1:
  26:src/tcb.cpp   ****     running->setFinished(true);
  39              		.loc 1 26 5 is_stmt 1
  40              		.loc 1 26 25 is_stmt 0
  41 0038 83B70400 		ld	a5,0(s1)
  42              	.LVL2:
  43              	.LBB32:
  44              	.LBB33:
  45              		.file 2 "src/../h/tcb.hpp"
   1:src/../h/tcb.hpp **** #ifndef OS_PROJEKAT_TCB_HPP
   2:src/../h/tcb.hpp **** #define OS_PROJEKAT_TCB_HPP
   3:src/../h/tcb.hpp **** 
   4:src/../h/tcb.hpp **** #include "../h/MemoryAllocator.hpp"
   5:src/../h/tcb.hpp **** #include "../h/Scheduler.hpp"
   6:src/../h/tcb.hpp **** #include "../h/riscv.hpp"
   7:src/../h/tcb.hpp **** 
   8:src/../h/tcb.hpp **** //Klasa implementirana na osnovu klase TCB sa vezbi.
   9:src/../h/tcb.hpp **** 
  10:src/../h/tcb.hpp **** struct Suspend{
  11:src/../h/tcb.hpp ****     TCB* tcb;
  12:src/../h/tcb.hpp ****     Suspend* next;
  13:src/../h/tcb.hpp ****     Suspend(TCB* tcb, Suspend* next): tcb(tcb), next(next){};
  14:src/../h/tcb.hpp **** };
  15:src/../h/tcb.hpp **** 
  16:src/../h/tcb.hpp **** typedef unsigned long time_t;
  17:src/../h/tcb.hpp **** struct Sleep{
  18:src/../h/tcb.hpp ****     TCB* thread;
  19:src/../h/tcb.hpp ****     unsigned long sleepTime;
  20:src/../h/tcb.hpp ****     struct Sleep* next;
  21:src/../h/tcb.hpp **** };
  22:src/../h/tcb.hpp **** 
  23:src/../h/tcb.hpp **** class TCB{
  24:src/../h/tcb.hpp **** public:
  25:src/../h/tcb.hpp ****     static TCB* running;
  26:src/../h/tcb.hpp ****     static Sleep* sleepHead;
  27:src/../h/tcb.hpp **** 
  28:src/../h/tcb.hpp ****     typedef void(*Body)(void*);
  29:src/../h/tcb.hpp ****     static TCB *createThread(Body body, void* arg, char* stack_space);
  30:src/../h/tcb.hpp ****     static int exit();
  31:src/../h/tcb.hpp ****     void join(TCB* handle);
  32:src/../h/tcb.hpp ****     static void yield();
  33:src/../h/tcb.hpp ****     static void dispatch();
  34:src/../h/tcb.hpp ****     static void sleep(time_t timeToSleep);
  35:src/../h/tcb.hpp **** 
  36:src/../h/tcb.hpp ****     bool isFinished() const { return finished; }
  37:src/../h/tcb.hpp ****     void setFinished(bool value) { finished = value; }
  46              		.loc 2 37 36 is_stmt 1
  47              		.loc 2 37 45 is_stmt 0
  48 003c 13071000 		li	a4,1
  49 0040 2384E702 		sb	a4,40(a5)
  50              	.LVL3:
GAS LISTING /tmp/ccgzMixE.s 			page 3


  51              	.L3:
  52              	.LBE33:
  53              	.LBE32:
  27:src/tcb.cpp   ****     while(running->headSuspend){
  54              		.loc 1 27 5 is_stmt 1
  55              		.loc 1 27 20
  56 0044 97070000 		ld	a5,.LANCHOR0
  56      83B70700 
  57 004c 83B40703 		ld	s1,48(a5)
  58 0050 638E0402 		beqz	s1,.L2
  59              	.LBB34:
  28:src/tcb.cpp   ****         Suspend* old = running->headSuspend;
  60              		.loc 1 28 9
  61              	.LVL4:
  29:src/tcb.cpp   ****         running->headSuspend = running->headSuspend->next;
  62              		.loc 1 29 9
  63              		.loc 1 29 54 is_stmt 0
  64 0054 03B78400 		ld	a4,8(s1)
  65              		.loc 1 29 30
  66 0058 23B8E702 		sd	a4,48(a5)
  30:src/tcb.cpp   ****         TCB* t = old->tcb;
  67              		.loc 1 30 9 is_stmt 1
  68              		.loc 1 30 14 is_stmt 0
  69 005c 03B90400 		ld	s2,0(s1)
  70              	.LVL5:
  31:src/tcb.cpp   ****         t->setBlocked(false);
  71              		.loc 1 31 9 is_stmt 1
  72              	.LBB35:
  73              	.LBB36:
  38:src/../h/tcb.hpp ****     bool isBlocked() const { return blocked; }
  39:src/../h/tcb.hpp ****     void setBlocked(bool value) { blocked = value; }
  74              		.loc 2 39 35
  75              		.loc 2 39 43 is_stmt 0
  76 0060 A3040902 		sb	zero,41(s2)
  77              	.LVL6:
  78              	.LBE36:
  79              	.LBE35:
  32:src/tcb.cpp   ****         Scheduler::instanceOfScheduler().put(t);
  80              		.loc 1 32 9 is_stmt 1
  81              		.loc 1 32 40 is_stmt 0
  82 0064 97000000 		call	_ZN9Scheduler19instanceOfSchedulerEv@plt
  82      E7800000 
  83              	.LVL7:
  84              		.loc 1 32 45
  85 006c 93050900 		mv	a1,s2
  86 0070 97000000 		call	_ZN9Scheduler3putEP3TCB@plt
  86      E7800000 
  87              	.LVL8:
  33:src/tcb.cpp   ****         delete(old);
  88              		.loc 1 33 9 is_stmt 1
  89              		.loc 1 33 20 is_stmt 0
  90 0078 E38604FC 		beqz	s1,.L3
  91              		.loc 1 33 19 discriminator 1
  92 007c 13850400 		mv	a0,s1
  93 0080 97000000 		call	_ZdlPv@plt
  93      E7800000 
  94              	.LVL9:
GAS LISTING /tmp/ccgzMixE.s 			page 4


  95 0088 6FF0DFFB 		j	.L3
  96              	.LVL10:
  97              	.L2:
  98              	.LBE34:
  34:src/tcb.cpp   ****     }
  35:src/tcb.cpp   ****     thread_dispatch();
  99              		.loc 1 35 5 is_stmt 1
 100              		.loc 1 35 20 is_stmt 0
 101 008c 97000000 		call	_Z15thread_dispatchv@plt
 101      E7800000 
 102              	.LVL11:
  36:src/tcb.cpp   **** }
 103              		.loc 1 36 1
 104 0094 83308101 		ld	ra,24(sp)
 105              		.cfi_restore 1
 106 0098 03340101 		ld	s0,16(sp)
 107              		.cfi_restore 8
 108              		.cfi_def_cfa 2, 32
 109 009c 83348100 		ld	s1,8(sp)
 110              		.cfi_restore 9
 111 00a0 03390100 		ld	s2,0(sp)
 112              		.cfi_restore 18
 113 00a4 13010102 		addi	sp,sp,32
 114              		.cfi_def_cfa_offset 0
 115 00a8 67800000 		jr	ra
 116              		.cfi_endproc
 117              	.LFE33:
 119              		.align	2
 120              		.globl	_ZN3TCB12createThreadEPFvPvES0_Pc
 122              	_ZN3TCB12createThreadEPFvPvES0_Pc:
 123              	.LFB32:
   7:src/tcb.cpp   ****     TCB* newTCB = (TCB*) MemoryAllocator::instance().mem_alloc((sizeof(TCB) + MEM_BLOCK_SIZE - 1) /
 124              		.loc 1 7 65 is_stmt 1
 125              		.cfi_startproc
 126              	.LVL12:
 127 00ac 130101FD 		addi	sp,sp,-48
 128              		.cfi_def_cfa_offset 48
 129 00b0 23341102 		sd	ra,40(sp)
 130 00b4 23308102 		sd	s0,32(sp)
 131 00b8 233C9100 		sd	s1,24(sp)
 132 00bc 23382101 		sd	s2,16(sp)
 133 00c0 23343101 		sd	s3,8(sp)
 134              		.cfi_offset 1, -8
 135              		.cfi_offset 8, -16
 136              		.cfi_offset 9, -24
 137              		.cfi_offset 18, -32
 138              		.cfi_offset 19, -40
 139 00c4 13040103 		addi	s0,sp,48
 140              		.cfi_def_cfa 8, 0
 141 00c8 13090500 		mv	s2,a0
 142 00cc 93890500 		mv	s3,a1
 143 00d0 93040600 		mv	s1,a2
   8:src/tcb.cpp   ****     newTCB->arg =arg;
 144              		.loc 1 8 5
   8:src/tcb.cpp   ****     newTCB->arg =arg;
 145              		.loc 1 8 52 is_stmt 0
 146 00d4 97000000 		call	_ZN15MemoryAllocator8instanceEv@plt
GAS LISTING /tmp/ccgzMixE.s 			page 5


 146      E7800000 
 147              	.LVL13:
   8:src/tcb.cpp   ****     newTCB->arg =arg;
 148              		.loc 1 8 63
 149 00dc 93051000 		li	a1,1
 150 00e0 97000000 		call	_ZN15MemoryAllocator9mem_allocEm@plt
 150      E7800000 
 151              	.LVL14:
   9:src/tcb.cpp   ****     newTCB->body = body;
 152              		.loc 1 9 5 is_stmt 1
   9:src/tcb.cpp   ****     newTCB->body = body;
 153              		.loc 1 9 17 is_stmt 0
 154 00e8 23383501 		sd	s3,16(a0)
  10:src/tcb.cpp   ****     newTCB->finished = false;
 155              		.loc 1 10 5 is_stmt 1
  10:src/tcb.cpp   ****     newTCB->finished = false;
 156              		.loc 1 10 18 is_stmt 0
 157 00ec 23302501 		sd	s2,0(a0)
  11:src/tcb.cpp   ****     newTCB->blocked = false;
 158              		.loc 1 11 5 is_stmt 1
  11:src/tcb.cpp   ****     newTCB->blocked = false;
 159              		.loc 1 11 22 is_stmt 0
 160 00f0 23040502 		sb	zero,40(a0)
  12:src/tcb.cpp   ****     //newTCB->suspended = false;
 161              		.loc 1 12 5 is_stmt 1
  12:src/tcb.cpp   ****     //newTCB->suspended = false;
 162              		.loc 1 12 21 is_stmt 0
 163 00f4 A3040502 		sb	zero,41(a0)
  15:src/tcb.cpp   ****     newTCB->timeSlice = DEFAULT_TIME_SLICE;
 164              		.loc 1 15 5 is_stmt 1
  15:src/tcb.cpp   ****     newTCB->timeSlice = DEFAULT_TIME_SLICE;
 165              		.loc 1 15 25 is_stmt 0
 166 00f8 23380502 		sd	zero,48(a0)
  16:src/tcb.cpp   ****     newTCB->userStack = (body != nullptr ? (uint64)&(stack_space[8*DEFAULT_STACK_SIZE]) : 0);
 167              		.loc 1 16 5 is_stmt 1
  16:src/tcb.cpp   ****     newTCB->userStack = (body != nullptr ? (uint64)&(stack_space[8*DEFAULT_STACK_SIZE]) : 0);
 168              		.loc 1 16 23 is_stmt 0
 169 00fc 93072000 		li	a5,2
 170 0100 233CF502 		sd	a5,56(a0)
  17:src/tcb.cpp   ****     newTCB->contex.ra = (uint64) &threadWrapper;
 171              		.loc 1 17 5 is_stmt 1
  17:src/tcb.cpp   ****     newTCB->contex.ra = (uint64) &threadWrapper;
 172              		.loc 1 17 42 is_stmt 0
 173 0104 630E0902 		beqz	s2,.L8
  17:src/tcb.cpp   ****     newTCB->contex.ra = (uint64) &threadWrapper;
 174              		.loc 1 17 52 discriminator 1
 175 0108 37860000 		li	a2,32768
 176 010c 3386C400 		add	a2,s1,a2
 177              	.L7:
  17:src/tcb.cpp   ****     newTCB->contex.ra = (uint64) &threadWrapper;
 178              		.loc 1 17 23 discriminator 4
 179 0110 2334C500 		sd	a2,8(a0)
  18:src/tcb.cpp   ****     newTCB->contex.sp = newTCB->userStack;
 180              		.loc 1 18 5 is_stmt 1 discriminator 4
  18:src/tcb.cpp   ****     newTCB->contex.sp = newTCB->userStack;
 181              		.loc 1 18 23 is_stmt 0 discriminator 4
 182 0114 97070000 		lla	a5,_ZN3TCB13threadWrapperEv
GAS LISTING /tmp/ccgzMixE.s 			page 6


 182      93870700 
 183 011c 233CF500 		sd	a5,24(a0)
  19:src/tcb.cpp   ****     return newTCB;
 184              		.loc 1 19 5 is_stmt 1 discriminator 4
  19:src/tcb.cpp   ****     return newTCB;
 185              		.loc 1 19 23 is_stmt 0 discriminator 4
 186 0120 2330C502 		sd	a2,32(a0)
  20:src/tcb.cpp   **** }
 187              		.loc 1 20 5 is_stmt 1 discriminator 4
  21:src/tcb.cpp   **** 
 188              		.loc 1 21 1 is_stmt 0 discriminator 4
 189 0124 83308102 		ld	ra,40(sp)
 190              		.cfi_remember_state
 191              		.cfi_restore 1
 192 0128 03340102 		ld	s0,32(sp)
 193              		.cfi_restore 8
 194              		.cfi_def_cfa 2, 48
 195 012c 83348101 		ld	s1,24(sp)
 196              		.cfi_restore 9
 197              	.LVL15:
 198 0130 03390101 		ld	s2,16(sp)
 199              		.cfi_restore 18
 200              	.LVL16:
 201 0134 83398100 		ld	s3,8(sp)
 202              		.cfi_restore 19
 203              	.LVL17:
 204 0138 13010103 		addi	sp,sp,48
 205              		.cfi_def_cfa_offset 0
 206 013c 67800000 		jr	ra
 207              	.LVL18:
 208              	.L8:
 209              		.cfi_restore_state
  17:src/tcb.cpp   ****     newTCB->contex.ra = (uint64) &threadWrapper;
 210              		.loc 1 17 42
 211 0140 13060000 		li	a2,0
 212 0144 6FF0DFFC 		j	.L7
 213              		.cfi_endproc
 214              	.LFE32:
 216              		.align	2
 217              		.globl	_ZN3TCB8dispatchEv
 219              	_ZN3TCB8dispatchEv:
 220              	.LFB34:
  37:src/tcb.cpp   **** 
  38:src/tcb.cpp   **** void TCB::dispatch() {
 221              		.loc 1 38 22 is_stmt 1
 222              		.cfi_startproc
 223 0148 130101FE 		addi	sp,sp,-32
 224              		.cfi_def_cfa_offset 32
 225 014c 233C1100 		sd	ra,24(sp)
 226 0150 23388100 		sd	s0,16(sp)
 227 0154 23349100 		sd	s1,8(sp)
 228              		.cfi_offset 1, -8
 229              		.cfi_offset 8, -16
 230              		.cfi_offset 9, -24
 231 0158 13040102 		addi	s0,sp,32
 232              		.cfi_def_cfa 8, 0
  39:src/tcb.cpp   ****     TCB* old = running;
GAS LISTING /tmp/ccgzMixE.s 			page 7


 233              		.loc 1 39 5
 234              		.loc 1 39 10 is_stmt 0
 235 015c 97040000 		ld	s1,.LANCHOR0
 235      83B40400 
 236              	.LVL19:
  40:src/tcb.cpp   ****     if(!old->isFinished() && !old->isBlocked()) {
 237              		.loc 1 40 5 is_stmt 1
 238              	.LBB37:
 239              	.LBB38:
  36:src/../h/tcb.hpp ****     void setFinished(bool value) { finished = value; }
 240              		.loc 2 36 31
  36:src/../h/tcb.hpp ****     void setFinished(bool value) { finished = value; }
 241              		.loc 2 36 38 is_stmt 0
 242 0164 83C78402 		lbu	a5,40(s1)
 243              	.LVL20:
 244              	.LBE38:
 245              	.LBE37:
 246              		.loc 1 40 27
 247 0168 63960700 		bnez	a5,.L11
 248              	.LVL21:
 249              	.LBB39:
 250              	.LBB40:
  38:src/../h/tcb.hpp ****     void setBlocked(bool value) { blocked = value; }
 251              		.loc 2 38 30 is_stmt 1
  38:src/../h/tcb.hpp ****     void setBlocked(bool value) { blocked = value; }
 252              		.loc 2 38 37 is_stmt 0
 253 016c 83C79402 		lbu	a5,41(s1)
 254              	.LVL22:
 255              	.LBE40:
 256              	.LBE39:
 257              		.loc 1 40 27
 258 0170 63800704 		beqz	a5,.L13
 259              	.L11:
  41:src/tcb.cpp   ****         Scheduler::instanceOfScheduler().put(old);
  42:src/tcb.cpp   ****     }
  43:src/tcb.cpp   ****     running = Scheduler::instanceOfScheduler().get();
 260              		.loc 1 43 5 is_stmt 1
 261              		.loc 1 43 46 is_stmt 0
 262 0174 97000000 		call	_ZN9Scheduler19instanceOfSchedulerEv@plt
 262      E7800000 
 263              	.LVL23:
 264              		.loc 1 43 51
 265 017c 97000000 		call	_ZN9Scheduler3getEv@plt
 265      E7800000 
 266              	.LVL24:
 267              		.loc 1 43 13
 268 0184 97070000 		sd	a0,.LANCHOR0,a5
 268      23B0A700 
  44:src/tcb.cpp   **** 
  45:src/tcb.cpp   ****     TCB::contextSwitch(&old->contex, &running->contex);
 269              		.loc 1 45 5 is_stmt 1
 270              		.loc 1 45 23 is_stmt 0
 271 018c 93058501 		addi	a1,a0,24
 272 0190 13858401 		addi	a0,s1,24
 273 0194 97000000 		call	_ZN3TCB13contextSwitchEPNS_7ContextES1_@plt
 273      E7800000 
 274              	.LVL25:
GAS LISTING /tmp/ccgzMixE.s 			page 8


  46:src/tcb.cpp   **** }
 275              		.loc 1 46 1
 276 019c 83308101 		ld	ra,24(sp)
 277              		.cfi_remember_state
 278              		.cfi_restore 1
 279 01a0 03340101 		ld	s0,16(sp)
 280              		.cfi_restore 8
 281              		.cfi_def_cfa 2, 32
 282 01a4 83348100 		ld	s1,8(sp)
 283              		.cfi_restore 9
 284              	.LVL26:
 285 01a8 13010102 		addi	sp,sp,32
 286              		.cfi_def_cfa_offset 0
 287 01ac 67800000 		jr	ra
 288              	.LVL27:
 289              	.L13:
 290              		.cfi_restore_state
  41:src/tcb.cpp   ****         Scheduler::instanceOfScheduler().put(old);
 291              		.loc 1 41 9 is_stmt 1
  41:src/tcb.cpp   ****         Scheduler::instanceOfScheduler().put(old);
 292              		.loc 1 41 40 is_stmt 0
 293 01b0 97000000 		call	_ZN9Scheduler19instanceOfSchedulerEv@plt
 293      E7800000 
 294              	.LVL28:
  41:src/tcb.cpp   ****         Scheduler::instanceOfScheduler().put(old);
 295              		.loc 1 41 45
 296 01b8 93850400 		mv	a1,s1
 297 01bc 97000000 		call	_ZN9Scheduler3putEP3TCB@plt
 297      E7800000 
 298              	.LVL29:
 299 01c4 6FF01FFB 		j	.L11
 300              		.cfi_endproc
 301              	.LFE34:
 303              		.align	2
 304              		.globl	_ZN3TCB4exitEv
 306              	_ZN3TCB4exitEv:
 307              	.LFB35:
  47:src/tcb.cpp   **** 
  48:src/tcb.cpp   **** int TCB::exit() {
 308              		.loc 1 48 17 is_stmt 1
 309              		.cfi_startproc
  49:src/tcb.cpp   ****     if(!running->isFinished()){
 310              		.loc 1 49 5
 311              	.LBB41:
 312              		.loc 1 49 28 is_stmt 0
 313 01c8 97070000 		ld	a5,.LANCHOR0
 313      83B70700 
 314              	.LVL30:
 315              	.LBB42:
 316              	.LBB43:
  36:src/../h/tcb.hpp ****     void setFinished(bool value) { finished = value; }
 317              		.loc 2 36 31 is_stmt 1
  36:src/../h/tcb.hpp ****     void setFinished(bool value) { finished = value; }
 318              		.loc 2 36 38 is_stmt 0
 319 01d0 03C78702 		lbu	a4,40(a5)
 320              	.LVL31:
 321              	.LBE43:
GAS LISTING /tmp/ccgzMixE.s 			page 9


 322              	.LBE42:
 323              		.loc 1 49 5
 324 01d4 63180708 		bnez	a4,.L19
 325              	.LBE41:
  48:src/tcb.cpp   ****     if(!running->isFinished()){
 326              		.loc 1 48 17
 327 01d8 130101FE 		addi	sp,sp,-32
 328              		.cfi_def_cfa_offset 32
 329 01dc 233C1100 		sd	ra,24(sp)
 330 01e0 23388100 		sd	s0,16(sp)
 331 01e4 23349100 		sd	s1,8(sp)
 332 01e8 23302101 		sd	s2,0(sp)
 333              		.cfi_offset 1, -8
 334              		.cfi_offset 8, -16
 335              		.cfi_offset 9, -24
 336              		.cfi_offset 18, -32
 337 01ec 13040102 		addi	s0,sp,32
 338              		.cfi_def_cfa 8, 0
 339              	.LBB50:
 340              	.LBB44:
  50:src/tcb.cpp   ****         running->setFinished(true);
 341              		.loc 1 50 9 is_stmt 1
 342              	.LVL32:
 343              	.LBB45:
 344              	.LBB46:
  37:src/../h/tcb.hpp ****     bool isBlocked() const { return blocked; }
 345              		.loc 2 37 36
  37:src/../h/tcb.hpp ****     bool isBlocked() const { return blocked; }
 346              		.loc 2 37 45 is_stmt 0
 347 01f0 13071000 		li	a4,1
 348 01f4 2384E702 		sb	a4,40(a5)
 349              	.LVL33:
 350              	.L17:
 351              	.LBE46:
 352              	.LBE45:
  51:src/tcb.cpp   ****         while(running->headSuspend){
 353              		.loc 1 51 9 is_stmt 1
 354              		.loc 1 51 24
 355 01f8 97070000 		ld	a5,.LANCHOR0
 355      83B70700 
 356 0200 83B40703 		ld	s1,48(a5)
 357 0204 638E0402 		beqz	s1,.L16
 358              	.LBB47:
  52:src/tcb.cpp   ****             Suspend* old = running->headSuspend;
 359              		.loc 1 52 13
 360              	.LVL34:
  53:src/tcb.cpp   ****             running->headSuspend = running->headSuspend->next;
 361              		.loc 1 53 13
 362              		.loc 1 53 58 is_stmt 0
 363 0208 03B78400 		ld	a4,8(s1)
 364              		.loc 1 53 34
 365 020c 23B8E702 		sd	a4,48(a5)
  54:src/tcb.cpp   ****             TCB* t = old->tcb;
 366              		.loc 1 54 13 is_stmt 1
 367              		.loc 1 54 18 is_stmt 0
 368 0210 03B90400 		ld	s2,0(s1)
 369              	.LVL35:
GAS LISTING /tmp/ccgzMixE.s 			page 10


  55:src/tcb.cpp   ****             t->setBlocked(false);
 370              		.loc 1 55 13 is_stmt 1
 371              	.LBB48:
 372              	.LBB49:
 373              		.loc 2 39 35
 374              		.loc 2 39 43 is_stmt 0
 375 0214 A3040902 		sb	zero,41(s2)
 376              	.LVL36:
 377              	.LBE49:
 378              	.LBE48:
  56:src/tcb.cpp   ****             Scheduler::instanceOfScheduler().put(t);
 379              		.loc 1 56 13 is_stmt 1
 380              		.loc 1 56 44 is_stmt 0
 381 0218 97000000 		call	_ZN9Scheduler19instanceOfSchedulerEv@plt
 381      E7800000 
 382              	.LVL37:
 383              		.loc 1 56 49
 384 0220 93050900 		mv	a1,s2
 385 0224 97000000 		call	_ZN9Scheduler3putEP3TCB@plt
 385      E7800000 
 386              	.LVL38:
  57:src/tcb.cpp   ****             delete(old);
 387              		.loc 1 57 13 is_stmt 1
 388              		.loc 1 57 24 is_stmt 0
 389 022c E38604FC 		beqz	s1,.L17
 390              		.loc 1 57 23 discriminator 1
 391 0230 13850400 		mv	a0,s1
 392 0234 97000000 		call	_ZdlPv@plt
 392      E7800000 
 393              	.LVL39:
 394 023c 6FF0DFFB 		j	.L17
 395              	.LVL40:
 396              	.L16:
 397              	.LBE47:
  58:src/tcb.cpp   ****         }
  59:src/tcb.cpp   ****         thread_dispatch();
 398              		.loc 1 59 9 is_stmt 1
 399              		.loc 1 59 24 is_stmt 0
 400 0240 97000000 		call	_Z15thread_dispatchv@plt
 400      E7800000 
 401              	.LVL41:
  60:src/tcb.cpp   ****         return 0;
 402              		.loc 1 60 9 is_stmt 1
 403              		.loc 1 60 16 is_stmt 0
 404 0248 13050000 		li	a0,0
 405              	.LBE44:
 406              	.LBE50:
  61:src/tcb.cpp   ****     }
  62:src/tcb.cpp   ****     return -1;
  63:src/tcb.cpp   **** }
 407              		.loc 1 63 1
 408 024c 83308101 		ld	ra,24(sp)
 409              		.cfi_restore 1
 410 0250 03340101 		ld	s0,16(sp)
 411              		.cfi_restore 8
 412              		.cfi_def_cfa 2, 32
 413 0254 83348100 		ld	s1,8(sp)
GAS LISTING /tmp/ccgzMixE.s 			page 11


 414              		.cfi_restore 9
 415 0258 03390100 		ld	s2,0(sp)
 416              		.cfi_restore 18
 417 025c 13010102 		addi	sp,sp,32
 418              		.cfi_def_cfa_offset 0
 419 0260 67800000 		jr	ra
 420              	.L19:
  62:src/tcb.cpp   **** }
 421              		.loc 1 62 13
 422 0264 1305F0FF 		li	a0,-1
 423              		.loc 1 63 1
 424 0268 67800000 		ret
 425              		.cfi_endproc
 426              	.LFE35:
 428              		.align	2
 429              		.globl	_ZN3TCB4joinEPS_
 431              	_ZN3TCB4joinEPS_:
 432              	.LFB36:
  64:src/tcb.cpp   **** 
  65:src/tcb.cpp   **** void TCB::join(TCB *handle) {
 433              		.loc 1 65 29 is_stmt 1
 434              		.cfi_startproc
 435              	.LVL42:
  66:src/tcb.cpp   ****     if(handle->isFinished()) return;
 436              		.loc 1 66 5
 437              	.LBB51:
 438              	.LBB52:
  36:src/../h/tcb.hpp ****     void setFinished(bool value) { finished = value; }
 439              		.loc 2 36 31
  36:src/../h/tcb.hpp ****     void setFinished(bool value) { finished = value; }
 440              		.loc 2 36 38 is_stmt 0
 441 026c 83C78502 		lbu	a5,40(a1)
 442              	.LVL43:
 443              	.LBE52:
 444              	.LBE51:
 445              		.loc 1 66 5
 446 0270 63840700 		beqz	a5,.L31
 447 0274 67800000 		ret
 448              	.L31:
  65:src/tcb.cpp   ****     if(handle->isFinished()) return;
 449              		.loc 1 65 29
 450 0278 130101FE 		addi	sp,sp,-32
 451              		.cfi_def_cfa_offset 32
 452 027c 233C1100 		sd	ra,24(sp)
 453 0280 23388100 		sd	s0,16(sp)
 454 0284 23349100 		sd	s1,8(sp)
 455 0288 23302101 		sd	s2,0(sp)
 456              		.cfi_offset 1, -8
 457              		.cfi_offset 8, -16
 458              		.cfi_offset 9, -24
 459              		.cfi_offset 18, -32
 460 028c 13040102 		addi	s0,sp,32
 461              		.cfi_def_cfa 8, 0
 462 0290 13090500 		mv	s2,a0
 463 0294 93840500 		mv	s1,a1
  67:src/tcb.cpp   ****     setBlocked(true);
 464              		.loc 1 67 5 is_stmt 1
GAS LISTING /tmp/ccgzMixE.s 			page 12


 465              	.LVL44:
 466              	.LBB53:
 467              	.LBB54:
 468              		.loc 2 39 35
 469              		.loc 2 39 43 is_stmt 0
 470 0298 93071000 		li	a5,1
 471 029c A304F502 		sb	a5,41(a0)
 472              	.LVL45:
 473              	.LBE54:
 474              	.LBE53:
  68:src/tcb.cpp   ****     Suspend* newSuspend = new Suspend(this, nullptr);
 475              		.loc 1 68 5 is_stmt 1
 476              		.loc 1 68 52 is_stmt 0
 477 02a0 13050001 		li	a0,16
 478              	.LVL46:
 479 02a4 97000000 		call	_Znwm@plt
 479      E7800000 
 480              	.LVL47:
 481              	.LBB55:
 482              	.LBB56:
  13:src/../h/tcb.hpp **** };
 483              		.loc 2 13 58
 484 02ac 23302501 		sd	s2,0(a0)
 485 02b0 23340500 		sd	zero,8(a0)
 486              	.LVL48:
 487              	.LBE56:
 488              	.LBE55:
  69:src/tcb.cpp   ****     if(handle->headSuspend) newSuspend->next = handle->headSuspend;
 489              		.loc 1 69 5 is_stmt 1
 490              		.loc 1 69 16 is_stmt 0
 491 02b4 83B70403 		ld	a5,48(s1)
 492              		.loc 1 69 5
 493 02b8 63840700 		beqz	a5,.L26
 494              		.loc 1 69 29 is_stmt 1 discriminator 1
 495              		.loc 1 69 46 is_stmt 0 discriminator 1
 496 02bc 2334F500 		sd	a5,8(a0)
 497              	.L26:
  70:src/tcb.cpp   ****     handle->headSuspend = newSuspend;
 498              		.loc 1 70 5 is_stmt 1
 499              		.loc 1 70 25 is_stmt 0
 500 02c0 23B8A402 		sd	a0,48(s1)
  71:src/tcb.cpp   ****     thread_dispatch();
 501              		.loc 1 71 5 is_stmt 1
 502              		.loc 1 71 20 is_stmt 0
 503 02c4 97000000 		call	_Z15thread_dispatchv@plt
 503      E7800000 
 504              	.LVL49:
  72:src/tcb.cpp   **** }
 505              		.loc 1 72 1
 506 02cc 83308101 		ld	ra,24(sp)
 507              		.cfi_restore 1
 508 02d0 03340101 		ld	s0,16(sp)
 509              		.cfi_restore 8
 510              		.cfi_def_cfa 2, 32
 511 02d4 83348100 		ld	s1,8(sp)
 512              		.cfi_restore 9
 513              	.LVL50:
GAS LISTING /tmp/ccgzMixE.s 			page 13


 514 02d8 03390100 		ld	s2,0(sp)
 515              		.cfi_restore 18
 516              	.LVL51:
 517 02dc 13010102 		addi	sp,sp,32
 518              		.cfi_def_cfa_offset 0
 519 02e0 67800000 		jr	ra
 520              		.cfi_endproc
 521              	.LFE36:
 523              		.align	2
 524              		.globl	_ZN3TCB5sleepEm
 526              	_ZN3TCB5sleepEm:
 527              	.LFB37:
  73:src/tcb.cpp   **** 
  74:src/tcb.cpp   **** void TCB::sleep(time_t timeSleep){
 528              		.loc 1 74 34 is_stmt 1
 529              		.cfi_startproc
 530              	.LVL52:
  75:src/tcb.cpp   ****     if(timeSleep == 0) return;
 531              		.loc 1 75 5
 532 02e4 63140500 		bnez	a0,.L43
 533 02e8 67800000 		ret
 534              	.L43:
  74:src/tcb.cpp   ****     if(timeSleep == 0) return;
 535              		.loc 1 74 34 is_stmt 0
 536 02ec 130101FE 		addi	sp,sp,-32
 537              		.cfi_def_cfa_offset 32
 538 02f0 233C1100 		sd	ra,24(sp)
 539 02f4 23388100 		sd	s0,16(sp)
 540 02f8 23349100 		sd	s1,8(sp)
 541              		.cfi_offset 1, -8
 542              		.cfi_offset 8, -16
 543              		.cfi_offset 9, -24
 544 02fc 13040102 		addi	s0,sp,32
 545              		.cfi_def_cfa 8, 0
 546 0300 93040500 		mv	s1,a0
  76:src/tcb.cpp   ****     Sleep* newSleep = (Sleep*) MemoryAllocator::instance().mem_alloc((sizeof(Sleep) + MEM_BLOCK_SIZ
 547              		.loc 1 76 5 is_stmt 1
 548              		.loc 1 76 58 is_stmt 0
 549 0304 97000000 		call	_ZN15MemoryAllocator8instanceEv@plt
 549      E7800000 
 550              	.LVL53:
 551              		.loc 1 76 69
 552 030c 93051000 		li	a1,1
 553 0310 97000000 		call	_ZN15MemoryAllocator9mem_allocEm@plt
 553      E7800000 
 554              	.LVL54:
 555 0318 93060500 		mv	a3,a0
 556              	.LVL55:
  77:src/tcb.cpp   ****     newSleep->thread = TCB::running;
 557              		.loc 1 77 5 is_stmt 1
 558              		.loc 1 77 22 is_stmt 0
 559 031c 97070000 		lla	a5,.LANCHOR0
 559      93870700 
 560 0324 03B80700 		ld	a6,0(a5)
 561 0328 23300501 		sd	a6,0(a0)
  78:src/tcb.cpp   ****     newSleep->next = nullptr;
 562              		.loc 1 78 5 is_stmt 1
GAS LISTING /tmp/ccgzMixE.s 			page 14


 563              		.loc 1 78 20 is_stmt 0
 564 032c 23380500 		sd	zero,16(a0)
  79:src/tcb.cpp   ****     newSleep->sleepTime = timeSleep;
 565              		.loc 1 79 5 is_stmt 1
 566              		.loc 1 79 25 is_stmt 0
 567 0330 23349500 		sd	s1,8(a0)
  80:src/tcb.cpp   **** 
  81:src/tcb.cpp   **** 
  82:src/tcb.cpp   ****     if(!sleepHead){
 568              		.loc 1 82 5 is_stmt 1
 569              	.LBB57:
 570              		.loc 1 82 8 is_stmt 0
 571 0334 83B78700 		ld	a5,8(a5)
 572              		.loc 1 82 5
 573 0338 63820704 		beqz	a5,.L44
 574              	.LBE57:
  83:src/tcb.cpp   ****         sleepHead = newSleep;
  84:src/tcb.cpp   ****     }
  85:src/tcb.cpp   ****     else if(sleepHead->sleepTime >= timeSleep){
 575              		.loc 1 85 10 is_stmt 1
 576              	.LBB61:
 577              	.LBB58:
 578              		.loc 1 85 24 is_stmt 0
 579 033c 03B58700 		ld	a0,8(a5)
 580              	.LVL56:
 581              		.loc 1 85 10
 582 0340 63649504 		bltu	a0,s1,.L38
  86:src/tcb.cpp   ****         //add first
  87:src/tcb.cpp   ****         sleepHead->sleepTime -= newSleep->sleepTime;
 583              		.loc 1 87 9 is_stmt 1
 584              		.loc 1 87 30 is_stmt 0
 585 0344 33059540 		sub	a0,a0,s1
 586 0348 23B4A700 		sd	a0,8(a5)
  88:src/tcb.cpp   ****         newSleep->next = sleepHead;
 587              		.loc 1 88 9 is_stmt 1
 588              		.loc 1 88 24 is_stmt 0
 589 034c 23B8F600 		sd	a5,16(a3)
  89:src/tcb.cpp   ****         sleepHead = newSleep;
 590              		.loc 1 89 9 is_stmt 1
 591              		.loc 1 89 19 is_stmt 0
 592 0350 97070000 		sd	a3,.LANCHOR0+8,a5
 592      23B0D700 
 593              	.LVL57:
 594              	.L35:
 595              	.LBE58:
 596              	.LBE61:
  90:src/tcb.cpp   ****     }
  91:src/tcb.cpp   ****     else {
  92:src/tcb.cpp   ****         Sleep *cur = sleepHead;
  93:src/tcb.cpp   ****         Sleep *prev = nullptr;
  94:src/tcb.cpp   ****         while (cur) {
  95:src/tcb.cpp   ****             if (cur->sleepTime > newSleep->sleepTime) break;
  96:src/tcb.cpp   ****             newSleep->sleepTime -= (cur->sleepTime);
  97:src/tcb.cpp   ****             prev = cur;
  98:src/tcb.cpp   ****             cur = cur->next;
  99:src/tcb.cpp   ****         }
 100:src/tcb.cpp   ****         prev->next = newSleep;
GAS LISTING /tmp/ccgzMixE.s 			page 15


 101:src/tcb.cpp   ****         newSleep->next = cur;
 102:src/tcb.cpp   ****         if (cur) cur->sleepTime -= newSleep->sleepTime;
 103:src/tcb.cpp   ****     }
 104:src/tcb.cpp   ****     TCB::running->setBlocked(true);
 597              		.loc 1 104 5 is_stmt 1
 598              	.LBB62:
 599              	.LBB63:
 600              		.loc 2 39 35
 601              		.loc 2 39 43 is_stmt 0
 602 0358 93071000 		li	a5,1
 603 035c A304F802 		sb	a5,41(a6)
 604              	.LVL58:
 605              	.LBE63:
 606              	.LBE62:
 105:src/tcb.cpp   ****     thread_dispatch();
 607              		.loc 1 105 5 is_stmt 1
 608              		.loc 1 105 20 is_stmt 0
 609 0360 97000000 		call	_Z15thread_dispatchv@plt
 609      E7800000 
 610              	.LVL59:
 106:src/tcb.cpp   **** }...
 611              		.loc 1 106 1
 612 0368 83308101 		ld	ra,24(sp)
 613              		.cfi_remember_state
 614              		.cfi_restore 1
 615 036c 03340101 		ld	s0,16(sp)
 616              		.cfi_restore 8
 617              		.cfi_def_cfa 2, 32
 618 0370 83348100 		ld	s1,8(sp)
 619              		.cfi_restore 9
 620              	.LVL60:
 621 0374 13010102 		addi	sp,sp,32
 622              		.cfi_def_cfa_offset 0
 623 0378 67800000 		jr	ra
 624              	.LVL61:
 625              	.L44:
 626              		.cfi_restore_state
 627              	.LBB64:
  83:src/tcb.cpp   ****         sleepHead = newSleep;
 628              		.loc 1 83 9 is_stmt 1
  83:src/tcb.cpp   ****         sleepHead = newSleep;
 629              		.loc 1 83 19 is_stmt 0
 630 037c 97070000 		sd	a0,.LANCHOR0+8,a5
 630      23B0A700 
 631 0384 6FF05FFD 		j	.L35
 632              	.LVL62:
 633              	.L38:
 634              	.LBB60:
 635              	.LBB59:
  93:src/tcb.cpp   ****         Sleep *prev = nullptr;
 636              		.loc 1 93 16
 637 0388 93050000 		li	a1,0
 638              	.L36:
 639              	.LVL63:
  94:src/tcb.cpp   ****         while (cur) {
 640              		.loc 1 94 9 is_stmt 1
  94:src/tcb.cpp   ****         while (cur) {
GAS LISTING /tmp/ccgzMixE.s 			page 16


 641              		.loc 1 94 16
 642 038c 63820702 		beqz	a5,.L37
  95:src/tcb.cpp   ****             if (cur->sleepTime > newSleep->sleepTime) break;
 643              		.loc 1 95 13
  95:src/tcb.cpp   ****             if (cur->sleepTime > newSleep->sleepTime) break;
 644              		.loc 1 95 22 is_stmt 0
 645 0390 03B68700 		ld	a2,8(a5)
  95:src/tcb.cpp   ****             if (cur->sleepTime > newSleep->sleepTime) break;
 646              		.loc 1 95 44
 647 0394 03B78600 		ld	a4,8(a3)
  95:src/tcb.cpp   ****             if (cur->sleepTime > newSleep->sleepTime) break;
 648              		.loc 1 95 13
 649 0398 636CC700 		bgtu	a2,a4,.L37
  96:src/tcb.cpp   ****             newSleep->sleepTime -= (cur->sleepTime);
 650              		.loc 1 96 13 is_stmt 1
  96:src/tcb.cpp   ****             newSleep->sleepTime -= (cur->sleepTime);
 651              		.loc 1 96 33 is_stmt 0
 652 039c 3307C740 		sub	a4,a4,a2
 653 03a0 23B4E600 		sd	a4,8(a3)
  97:src/tcb.cpp   ****             prev = cur;
 654              		.loc 1 97 13 is_stmt 1
 655              	.LVL64:
  98:src/tcb.cpp   ****             cur = cur->next;
 656              		.loc 1 98 13
  97:src/tcb.cpp   ****             prev = cur;
 657              		.loc 1 97 18 is_stmt 0
 658 03a4 93850700 		mv	a1,a5
  98:src/tcb.cpp   ****             cur = cur->next;
 659              		.loc 1 98 17
 660 03a8 83B70701 		ld	a5,16(a5)
 661              	.LVL65:
  94:src/tcb.cpp   ****         while (cur) {
 662              		.loc 1 94 9
 663 03ac 6FF01FFE 		j	.L36
 664              	.L37:
 100:src/tcb.cpp   ****         prev->next = newSleep;
 665              		.loc 1 100 9 is_stmt 1
 100:src/tcb.cpp   ****         prev->next = newSleep;
 666              		.loc 1 100 20 is_stmt 0
 667 03b0 23B8D500 		sd	a3,16(a1)
 101:src/tcb.cpp   ****         newSleep->next = cur;
 668              		.loc 1 101 9 is_stmt 1
 101:src/tcb.cpp   ****         newSleep->next = cur;
 669              		.loc 1 101 24 is_stmt 0
 670 03b4 23B8F600 		sd	a5,16(a3)
 102:src/tcb.cpp   ****         if (cur) cur->sleepTime -= newSleep->sleepTime;
 671              		.loc 1 102 9 is_stmt 1
 672 03b8 E38007FA 		beqz	a5,.L35
 102:src/tcb.cpp   ****         if (cur) cur->sleepTime -= newSleep->sleepTime;
 673              		.loc 1 102 18 discriminator 1
 102:src/tcb.cpp   ****         if (cur) cur->sleepTime -= newSleep->sleepTime;
 674              		.loc 1 102 46 is_stmt 0 discriminator 1
 675 03bc 83B68600 		ld	a3,8(a3)
 676              	.LVL66:
 102:src/tcb.cpp   ****         if (cur) cur->sleepTime -= newSleep->sleepTime;
 677              		.loc 1 102 33 discriminator 1
 678 03c0 03B78700 		ld	a4,8(a5)
GAS LISTING /tmp/ccgzMixE.s 			page 17


 679 03c4 3307D740 		sub	a4,a4,a3
 680 03c8 23B4E700 		sd	a4,8(a5)
 681 03cc 6FF0DFF8 		j	.L35
 682              	.LBE59:
 683              	.LBE60:
 684              	.LBE64:
 685              		.cfi_endproc
 686              	.LFE37:
 688              		.globl	_ZN3TCB16timeSliceCounterE
 689              		.globl	_ZN3TCB9sleepHeadE
 690              		.globl	_ZN3TCB7runningE
 691              		.bss
 692              		.align	3
 693              		.set	.LANCHOR0,. + 0
 696              	_ZN3TCB7runningE:
 697 0000 00000000 		.zero	8
 697      00000000 
 700              	_ZN3TCB9sleepHeadE:
 701 0008 00000000 		.zero	8
 701      00000000 
 704              	_ZN3TCB16timeSliceCounterE:
 705 0010 00000000 		.zero	8
 705      00000000 
 706              		.text
 707              	.Letext0:
 708              		.file 3 "src/../h/../h/../lib/hw.h"
 709              		.file 4 "src/../h/../h/MemoryAllocator.hpp"
 710              		.file 5 "src/../h/../h/Scheduler.hpp"
 711              		.file 6 "src/../h/../h/riscv.hpp"
 712              		.file 7 "src/../h/../h/../h/../h/syscall_c.h"
GAS LISTING /tmp/ccgzMixE.s 			page 18

